 H2_PROJECT

 Timestamp is 31b867d7 (Fri Jun 07 10:33:11 1996)

 Preferred load address is 00400000

 Start         Length     Name                   Class
 0001:00000000 0006b6b0H .text                   CODE
 0002:00000000 00000c08H .rdata                  DATA
 0002:00000c08 00000000H .edata                  DATA
 0003:00000000 00000004H .CRT$XCA                DATA
 0003:00000004 00000004H .CRT$XCZ                DATA
 0003:00000008 00000004H .CRT$XIA                DATA
 0003:0000000c 0000000cH .CRT$XIC                DATA
 0003:00000020 00000004H .CRT$XIF                DATA
 0003:00000024 00000004H .CRT$XIZ                DATA
 0003:00000028 00000004H .CRT$XPA                DATA
 0003:0000002c 00000004H .CRT$XPX                DATA
 0003:00000030 00000004H .CRT$XPZ                DATA
 0003:00000034 00000004H .CRT$XTA                DATA
 0003:00000038 00000004H .CRT$XTZ                DATA
 0003:00000040 00009170H .data                   DATA
 0003:000091b0 0147315cH .bss                    DATA
 0004:00000000 00000028H .idata$2                DATA
 0004:00000028 00000014H .idata$3                DATA
 0004:0000003c 000000e8H .idata$4                DATA
 0004:00000124 000000e8H .idata$5                DATA
 0004:0000020c 0000040eH .idata$6                DATA

  Address         Publics by Value              Rva+Base   Lib:Object

 0001:00000000       _GRADEN                    00401000 f GRADEN.OBJ
 0001:00000000       _GRADEN@12                 00401000 f GRADEN.OBJ
 0001:00000ea0       _F                         00401ea0 f F.OBJ
 0001:00000ea0       _F@4                       00401ea0 f F.OBJ
 0001:00000fc0       _GRKIN                     00401fc0 f GRKIN.OBJ
 0001:00000fc0       _GRKIN@72                  00401fc0 f GRKIN.OBJ
 0001:00003e90       _EIGN@8                    00404e90 f eign.obj
 0001:00003e90       _EIGN                      00404e90 f eign.obj
 0001:00006010       _YACOBI@24                 00407010 f YACOBI.OBJ
 0001:00006010       _YACOBI                    00407010 f YACOBI.OBJ
 0001:000074d0       _BLANKM@12                 004084d0 f BLANKM.OBJ
 0001:000074d0       _BLANKM                    004084d0 f BLANKM.OBJ
 0001:00007600       _SEARCH                    00408600 f search.obj
 0001:00007600       _SEARCH@8                  00408600 f search.obj
 0001:00008920       _ELREP@88                  00409920 f ELREP.OBJ
 0001:00008920       _ELREP                     00409920 f ELREP.OBJ
 0001:00009a00       _TAB                       0040aa00 f TAB.OBJ
 0001:00009a00       _TAB@20                    0040aa00 f TAB.OBJ
 0001:00009fd0       _TKJOHN@48                 0040afd0 f TKJOHN.OBJ
 0001:00009fd0       _TKJOHN                    0040afd0 f TKJOHN.OBJ
 0001:0000a650       _KFACT@76                  0040b650 f KFACT.OBJ
 0001:0000a650       _KFACT                     0040b650 f KFACT.OBJ
 0001:0000a9b0       _GUESS                     0040b9b0 f GUESS.OBJ
 0001:0000a9b0       _GUESS@48                  0040b9b0 f GUESS.OBJ
 0001:0000b080       _VEC                       0040c080 f VEC.OBJ
 0001:0000b080       _VEC@16                    0040c080 f VEC.OBJ
 0001:0000b200       _HAMILTON                  0040c200 f HAMILTON.OBJ
 0001:0000b200       _HAMILTON@80               0040c200 f HAMILTON.OBJ
 0001:0001d560       _DK                        0041e560 f DK.OBJ
 0001:0001d560       _DK@68                     0041e560 f DK.OBJ
 0001:0001e1e0       _VECH                      0041f1e0 f VECH.OBJ
 0001:0001e1e0       _VECH@16                   0041f1e0 f VECH.OBJ
 0001:0001e360       _GRNUE@72                  0041f360 f GRNUE.OBJ
 0001:0001e360       _GRNUE                     0041f360 f GRNUE.OBJ
 0001:0001fa70       _HAMILTONP@92              00420a70 f HAMILTONp.obj
 0001:0001fa70       _HAMILTONP                 00420a70 f HAMILTONp.obj
 0001:000259e0       _TRANSPOSE                 004269e0 f TRANSPOSE.OBJ
 0001:000259e0       _TRANSPOSE@20              004269e0 f TRANSPOSE.OBJ
 0001:00025b90       _ENUCL                     00426b90 f ENUCL.OBJ
 0001:00025b90       _ENUCL@100                 00426b90 f ENUCL.OBJ
 0001:00026e50       _GRADOPT                   00427e50 f GRADOPT.OBJ
 0001:00026e50       _GRADOPT@48                00427e50 f GRADOPT.OBJ
 0001:00027e50       _NGRADOPT                  00428e50 f GRADOPT.OBJ
 0001:00027e50       _NGRADOPT@48               00428e50 f GRADOPT.OBJ
 0001:00028da0       _FCN@12                    00429da0 f FCN.OBJ
 0001:00028da0       _FCN                       00429da0 f FCN.OBJ
 0001:000292e0       _VMATMULT@28               0042a2e0 f MATMULT.OBJ
 0001:000292e0       _VMATMULT                  0042a2e0 f MATMULT.OBJ
 0001:000294f0       _MATRIXM                   0042a4f0 f MATRIXM.OBJ
 0001:000294f0       _MATRIXM@28                0042a4f0 f MATRIXM.OBJ
 0001:00029810       _SMMULT@24                 0042a810 f SMMULT.OBJ
 0001:00029810       _SMMULT                    0042a810 f SMMULT.OBJ
 0001:000299c0       _GEOM                      0042a9c0 f GEOM.OBJ
 0001:000299c0       _GEOM@24                   0042a9c0 f GEOM.OBJ
 0001:00029a70       _BLANKDIRECTION            0042aa70 f BLANKDIR.OBJ
 0001:00029a70       _BLANKDIRECTION@12         0042aa70 f BLANKDIR.OBJ
 0001:00029b20       _GRELE                     0042ab20 f GRELE.OBJ
 0001:00029b20       _GRELE@68                  0042ab20 f GRELE.OBJ
 0001:0002a860       _GEMPRT@40                 0042b860 f GEMPRT.OBJ
 0001:0002a860       _GEMPRT                    0042b860 f GEMPRT.OBJ
 0001:0002aa50       _main                      0042ba50 f H2.OBJ
 0001:00038940       _BIOUT                     00439940 f BIOUT.OBJ
 0001:00038940       _BIOUT@8                   00439940 f BIOUT.OBJ
 0001:000389e0       _F0                        004399e0 f F0.OBJ
 0001:000389e0       _F0@4                      004399e0 f F0.OBJ
 0001:00038b60       _GROVER@68                 00439b60 f GROVER.OBJ
 0001:00038b60       _GROVER                    00439b60 f GROVER.OBJ
 0001:00039120       _MATRIXCOPY                0043a120 f MATRIXCOPY.OBJ
 0001:00039120       _MATRIXCOPY@20             0043a120 f MATRIXCOPY.OBJ
 0001:000392d0       _TK@84                     0043a2d0 f TK.OBJ
 0001:000392d0       _TK                        0043a2d0 f TK.OBJ
 0001:0003e440       _ENERGY@24                 0043f440 f ENERGY.OBJ
 0001:0003e440       _ENERGY                    0043f440 f ENERGY.OBJ
 0001:0003f050       _TRUDGE                    00440050 f trudge.obj
 0001:0003f050       _TRUDGE@8                  00440050 f trudge.obj
 0001:00042070       _OVERLP@88                 00443070 f OVERLP.OBJ
 0001:00042070       _OVERLP                    00443070 f OVERLP.OBJ
 0001:00042e90       _VECVECMULT@24             00443e90 f VECMULT.OBJ
 0001:00042e90       _VECVECMULT                00443e90 f VECMULT.OBJ
 0001:00042fa0       _DEVEC                     00443fa0 f DEVEC.OBJ
 0001:00042fa0       _DEVEC@16                  00443fa0 f DEVEC.OBJ
 0001:00043120       _DUMINF@36                 00444120 f MATHD:duminf.obj
 0001:00043120       _DUMINF                    00444120 f MATHD:duminf.obj
 0001:00043290       _DU4INF@8                  00444290 f MATHD:du4inf.obj
 0001:00043290       _DU4INF                    00444290 f MATHD:du4inf.obj
 0001:000433f0       _DUMING@40                 004443f0 f MATHD:duming.obj
 0001:000433f0       _DUMING                    004443f0 f MATHD:duming.obj
 0001:00043560       _DU2INF                    00444560 f MATHD:du2inf.obj
 0001:00043560       _DU2INF@40                 00444560 f MATHD:du2inf.obj
 0001:00043690       _E1STI@8                   00444690 f MATHD:e1sti.obj
 0001:00043690       _E1STI                     00444690 f MATHD:e1sti.obj
 0001:00043760       _E1POP                     00444760 f MATHD:e1pop.obj
 0001:00043760       _E1POP@8                   00444760 f MATHD:e1pop.obj
 0001:00043aa0       _E1PSH                     00444aa0 f MATHD:e1psh.obj
 0001:00043aa0       _E1PSH@8                   00444aa0 f MATHD:e1psh.obj
 0001:00043bb0       _E1MES@16                  00444bb0 f MATHD:e1mes.obj
 0001:00043bb0       _E1MES                     00444bb0 f MATHD:e1mes.obj
 0001:00044420       _DMACH                     00445420 f MATHD:dmach.obj
 0001:00044420       _DMACH@4                   00445420 f MATHD:dmach.obj
 0001:000444d0       _DU2ING                    004454d0 f MATHD:du2ing.obj
 0001:000444d0       _DU2ING@44                 004454d0 f MATHD:du2ing.obj
 0001:00044600       _DCOPY                     00445600 f MATHD:dcopy.obj
 0001:00044600       _DCOPY@20                  00445600 f MATHD:dcopy.obj
 0001:000447d0       _DU3INF                    004457d0 f MATHD:du3inf.obj
 0001:000447d0       _DU3INF@72                 004457d0 f MATHD:du3inf.obj
 0001:00045090       _N1THRD                    00446090 f MATHD:n1thrd.obj
 0001:00045090       _N1THRD@0                  00446090 f MATHD:n1thrd.obj
 0001:000450a0       _E1INIT                    004460a0 f MATHD:e1init.obj
 0001:000450a0       _E1INIT@0                  004460a0 f MATHD:e1init.obj
 0001:000452e0       _E1INPL@24                 004462e0 f MATHD:e1inpl.obj
 0001:000452e0       _E1INPL                    004462e0 f MATHD:e1inpl.obj
 0001:00045640       _I1ERIF@24                 00446640 f MATHD:i1erif.obj
 0001:00045640       _I1ERIF                    00446640 f MATHD:i1erif.obj
 0001:000456c0       _C1TIC                     004466c0 f MATHD:c1tic.obj
 0001:000456c0       _C1TIC@20                  004466c0 f MATHD:c1tic.obj
 0001:000458f0       _E1PRT                     004468f0 f MATHD:e1prt.obj
 0001:000458f0       _E1PRT@0                   004468f0 f MATHD:e1prt.obj
 0001:00046800       _E1STL                     00447800 f MATHD:e1stl.obj
 0001:00046800       _E1STL@12                  00447800 f MATHD:e1stl.obj
 0001:000468c0       _N1RGB                     004478c0 f MATHD:n1rgb.obj
 0001:000468c0       _N1RGB@4                   004478c0 f MATHD:n1rgb.obj
 0001:00046920       _M1VECH                    00447920 f MATHD:m1vech.obj
 0001:00046920       _M1VECH@24                 00447920 f MATHD:m1vech.obj
 0001:00046950       _E1UCS@0                   00447950 f MATHD:e1ucs.obj
 0001:00046950       _E1UCS                     00447950 f MATHD:e1ucs.obj
 0001:00046dc0       _M1VE                      00447dc0 f MATHD:m1ve.obj
 0001:00046dc0       _M1VE@44                   00447dc0 f MATHD:m1ve.obj
 0001:00046ed0       _I1DX@24                   00447ed0 f MATHD:i1dx.obj
 0001:00046ed0       _I1DX                      00447ed0 f MATHD:i1dx.obj
 0001:00046fb0       _C1TCI@20                  00447fb0 f MATHD:c1tci.obj
 0001:00046fb0       _C1TCI                     00447fb0 f MATHD:c1tci.obj
 0001:00047230       _DU3ING@76                 00448230 f MATHD:du3ing.obj
 0001:00047230       _DU3ING                    00448230 f MATHD:du3ing.obj
 0001:00047830       _N1RTY                     00448830 f MATHD:n1rty.obj
 0001:00047830       _N1RTY@4                   00448830 f MATHD:n1rty.obj
 0001:00047900       _E1USR@8                   00448900 f MATHD:e1usr.obj
 0001:00047900       _E1USR                     00448900 f MATHD:e1usr.obj
 0001:00047a30       _DU9INF                    00448a30 f MATHD:du9inf.obj
 0001:00047a30       _DU9INF@28                 00448a30 f MATHD:du9inf.obj
 0001:00047b20       _DU8INF                    00448b20 f MATHD:du8inf.obj
 0001:00047b20       _DU8INF@44                 00448b20 f MATHD:du8inf.obj
 0001:00047fb0       _DU6INF@56                 00448fb0 f MATHD:du6inf.obj
 0001:00047fb0       _DU6INF                    00448fb0 f MATHD:du6inf.obj
 0001:00048360       _DU5INF                    00449360 f MATHD:du5inf.obj
 0001:00048360       _DU5INF@28                 00449360 f MATHD:du5inf.obj
 0001:00048b10       _DFDGRD                    00449b10 f MATHD:dfdgrd.obj
 0001:00048b10       _DFDGRD@28                 00449b10 f MATHD:dfdgrd.obj
 0001:00048db0       _DCDGRD                    00449db0 f MATHD:dcdgrd.obj
 0001:00048db0       _DCDGRD@24                 00449db0 f MATHD:dcdgrd.obj
 0001:000490a0       _DNRM2                     0044a0a0 f MATHD:dnrm2.obj
 0001:000490a0       _DNRM2@12                  0044a0a0 f MATHD:dnrm2.obj
 0001:00049340       _N1RCD@4                   0044a340 f MATHD:n1rcd.obj
 0001:00049340       _N1RCD                     0044a340 f MATHD:n1rcd.obj
 0001:00049410       _DU17NF                    0044a410 f MATHD:du17nf.obj
 0001:00049410       _DU17NF@80                 0044a410 f MATHD:du17nf.obj
 0001:0004a050       _DU11NF                    0044b050 f MATHD:du11nf.obj
 0001:0004a050       _DU11NF@20                 0044b050 f MATHD:du11nf.obj
 0001:0004a1e0       _DU10NF@20                 0044b1e0 f MATHD:du10nf.obj
 0001:0004a1e0       _DU10NF                    0044b1e0 f MATHD:du10nf.obj
 0001:0004a240       _I1X                       0044b240 f MATHD:i1x.obj
 0001:0004a240       _I1X@24                    0044b240 f MATHD:i1x.obj
 0001:0004a320       _UMACH@8                   0044b320 f MATHD:umach.obj
 0001:0004a320       _UMACH                     0044b320 f MATHD:umach.obj
 0001:0004a3f0       _E3PRT@12                  0044b3f0 f MATHD:e3prt.obj
 0001:0004a3f0       _E3PRT                     0044b3f0 f MATHD:e3prt.obj
 0001:0004a420       _IACHAR@8                  0044b420 f MATHD:iachar.obj
 0001:0004a420       _IACHAR                    0044b420 f MATHD:iachar.obj
 0001:0004a450       _ICASE@8                   0044b450 f MATHD:icase.obj
 0001:0004a450       _ICASE                     0044b450 f MATHD:icase.obj
 0001:0004a470       _E1LOCK                    0044b470 f MATHD:e1lock.obj
 0001:0004a470       _E1LOCK@4                  0044b470 f MATHD:e1lock.obj
 0001:0004a480       _S1ANUM@20                 0044b480 f MATHD:s1anum.obj
 0001:0004a480       _S1ANUM                    0044b480 f MATHD:s1anum.obj
 0001:0004aa70       _I1CSTR@24                 0044ba70 f MATHD:i1cstr.obj
 0001:0004aa70       _I1CSTR                    0044ba70 f MATHD:i1cstr.obj
 0001:0004ac70       _IMACH@4                   0044bc70 f MATHD:imach.obj
 0001:0004ac70       _IMACH                     0044bc70 f MATHD:imach.obj
 0001:0004ad00       _DU17NG@84                 0044bd00 f MATHD:du17ng.obj
 0001:0004ad00       _DU17NG                    0044bd00 f MATHD:du17ng.obj
 0001:0004b8a0       _DSET                      0044c8a0 f MATHD:dset.obj
 0001:0004b8a0       _DSET@16                   0044c8a0 f MATHD:dset.obj
 0001:0004ba00       _DDOT                      0044ca00 f MATHD:ddot.obj
 0001:0004ba00       _DDOT@20                   0044ca00 f MATHD:ddot.obj
 0001:0004bbd0       _DSCAL                     0044cbd0 f MATHD:dscal.obj
 0001:0004bbd0       _DSCAL@16                  0044cbd0 f MATHD:dscal.obj
 0001:0004bcf0       _DU15NF@32                 0044ccf0 f MATHD:du15nf.obj
 0001:0004bcf0       _DU15NF                    0044ccf0 f MATHD:du15nf.obj
 0001:0004bfb0       _E1STD                     0044cfb0 f MATHD:e1std.obj
 0001:0004bfb0       _E1STD@8                   0044cfb0 f MATHD:e1std.obj
 0001:0004c100       _DU18NF                    0044d100 f MATHD:du18nf.obj
 0001:0004c100       _DU18NF@4                  0044d100 f MATHD:du18nf.obj
 0001:0004c210       _DU19NF@4                  0044d210 f MATHD:du19nf.obj
 0001:0004c210       _DU19NF                    0044d210 f MATHD:du19nf.obj
 0001:0004c3c0       _DAXPY                     0044d3c0 f MATHD:daxpy.obj
 0001:0004c3c0       _DAXPY@24                  0044d3c0 f MATHD:daxpy.obj
 0001:0004c590       _DU14NF                    0044d590 f MATHD:du14nf.obj
 0001:0004c590       _DU14NF@20                 0044d590 f MATHD:du14nf.obj
 0001:0004c660       _DU13NF                    0044d660 f MATHD:du13nf.obj
 0001:0004c660       _DU13NF@20                 0044d660 f MATHD:du13nf.obj
 0001:0004c720       _DROT                      0044d720 f MATHD:drot.obj
 0001:0004c720       _DROT@28                   0044d720 f MATHD:drot.obj
 0001:0004c8b0       _DROTG                     0044d8b0 f MATHD:drotg.obj
 0001:0004c8b0       _DROTG@16                  0044d8b0 f MATHD:drotg.obj
 0001:0004c9f0       _DIFNAN@4                  0044d9f0 f MATHD:difnan.obj
 0001:0004c9f0       _DIFNAN                    0044d9f0 f MATHD:difnan.obj
 0001:0004ca30       _f90_close                 0044da30 f libf:cclose.obj
 0001:0004cb10       _lwrite_i                  0044db10 f libf:cloutput.obj
 0001:0004cb30       _lwrite_i1                 0044db30 f libf:cloutput.obj
 0001:0004cb50       _lwrite_i2                 0044db50 f libf:cloutput.obj
 0001:0004cb70       _lwrite_l                  0044db70 f libf:cloutput.obj
 0001:0004cb90       _lwrite_l1                 0044db90 f libf:cloutput.obj
 0001:0004cba0       _lwrite_l2                 0044dba0 f libf:cloutput.obj
 0001:0004cbb0       _lwrite_d                  0044dbb0 f libf:cloutput.obj
 0001:0004cbd0       _lwrite_r                  0044dbd0 f libf:cloutput.obj
 0001:0004cbf0       _lwrite_dc                 0044dbf0 f libf:cloutput.obj
 0001:0004cc10       _lwrite_c                  0044dc10 f libf:cloutput.obj
 0001:0004cc30       _lwrite_ch                 0044dc30 f libf:cloutput.obj
 0001:0004cc70       _lwrite_ch_save            0044dc70 f libf:cloutput.obj
 0001:0004cc90       _CheckError                0044dc90 f libf:cformat.obj
 0001:0004cca0       _write_d                   0044dca0 f libf:cformat.obj
 0001:0004ccc0       _write_r                   0044dcc0 f libf:cformat.obj
 0001:0004cce0       _write_i                   0044dce0 f libf:cformat.obj
 0001:0004cd00       _write_i1                  0044dd00 f libf:cformat.obj
 0001:0004cd20       _write_i2                  0044dd20 f libf:cformat.obj
 0001:0004cd40       _write_c                   0044dd40 f libf:cformat.obj
 0001:0004cd60       _write_dc                  0044dd60 f libf:cformat.obj
 0001:0004cd80       _write_l                   0044dd80 f libf:cformat.obj
 0001:0004cda0       _write_l1                  0044dda0 f libf:cformat.obj
 0001:0004cdb0       _write_l2                  0044ddb0 f libf:cformat.obj
 0001:0004cdc0       _write_ch                  0044ddc0 f libf:cformat.obj
 0001:0004cde0       _write_ch_save             0044dde0 f libf:cformat.obj
 0001:0004ce00       _read_d                    0044de00 f libf:cformat.obj
 0001:0004ceb0       _read_r                    0044deb0 f libf:cformat.obj
 0001:0004cf60       _read_i                    0044df60 f libf:cformat.obj
 0001:0004d010       _read_i1                   0044e010 f libf:cformat.obj
 0001:0004d0c0       _read_i2                   0044e0c0 f libf:cformat.obj
 0001:0004d180       _read_c                    0044e180 f libf:cformat.obj
 0001:0004d230       _read_dc                   0044e230 f libf:cformat.obj
 0001:0004d2e0       _read_ch                   0044e2e0 f libf:cformat.obj
 0001:0004d3a0       _read_l                    0044e3a0 f libf:cformat.obj
 0001:0004d450       _read_l1                   0044e450 f libf:cformat.obj
 0001:0004d500       _read_l2                   0044e500 f libf:cformat.obj
 0001:0004d5b0       _f90_open                  0044e5b0 f libf:copen.obj
 0001:0004de90       _f90_write                 0044ee90 f libf:cwrite.obj
 0001:0004e070       _f90_endwrite              0044f070 f libf:cwrite.obj
 0001:0004e0c0       ___FHvexpl@8               0044f0c0 f libf:helper.obj
 0001:0004e140       ___FHfexpl@8               0044f140 f libf:helper.obj
 0001:0004e180       ___FHishal@8               0044f180 f libf:helper.obj
 0001:0004e1d0       ___FHishll@8               0044f1d0 f libf:helper.obj
 0001:0004e210       ___FHlink@4                0044f210 f libf:helper.obj
 0001:0004e230       ___FHunlink@0              0044f230 f libf:helper.obj
 0001:0004e240       ___FHbigint@0              0044f240 f libf:helper.obj
 0001:0004e260       ___FHranger@0              0044f260 f libf:helper.obj
 0001:0004e280       ___FHsranger@0             0044f280 f libf:helper.obj
 0001:0004e2a0       ___FHAGOTO@0               0044f2a0 f libf:helper.obj
 0001:0004e2b0       ___FHovfl@0                0044f2b0 f libf:helper.obj
 0001:0004e2d0       ___FHCASE@0                0044f2d0 f libf:helper.obj
 0001:0004e2f0       ___Dollar_debug_unwind     0044f2f0 f libf:helper.obj
 0001:0004e470       ___FFmathstub              0044f470 f libf:intrin.obj
 0001:0004e471       __FIfexp                   0044f471 f libf:intrin.obj
 0001:0004e48c       __FIcos                    0044f48c f libf:intrin.obj
 0001:0004e4a7       __FIsin                    0044f4a7 f libf:intrin.obj
 0001:0004e4c2       __FItan                    0044f4c2 f libf:intrin.obj
 0001:0004e4dd       __FIsqrt                   0044f4dd f libf:intrin.obj
 0001:0004e4f8       __FIdprod                  0044f4f8 f libf:intrin.obj
 0001:0004e4fb       __FIlog                    0044f4fb f libf:intrin.obj
 0001:0004e516       __FIalog10                 0044f516 f libf:intrin.obj
 0001:0004e531       __FIacos                   0044f531 f libf:intrin.obj
 0001:0004e54c       __FIcosh                   0044f54c f libf:intrin.obj
 0001:0004e567       __FIasin                   0044f567 f libf:intrin.obj
 0001:0004e582       __FIsinh                   0044f582 f libf:intrin.obj
 0001:0004e59d       __FIatan                   0044f59d f libf:intrin.obj
 0001:0004e5b8       __FIatan2                  0044f5b8 f libf:intrin.obj
 0001:0004e5d3       __FItanh                   0044f5d3 f libf:intrin.obj
 0001:0004e608       __FIcotan                  0044f608 f libf:intrin.obj
 0001:0004e64e       __FIexp                    0044f64e f libf:intrin.obj
 0001:0004e669       __FIamod                   0044f669 f libf:intrin.obj
 0001:0004e684       __FIsign                   0044f684 f libf:intrin.obj
 0001:0004e6b8       __FIdim                    0044f6b8 f libf:intrin.obj
 0001:0004e6f1       __FIIaint                  0044f6f1   libf:intrin.obj
 0001:0004e6f1       __FIaint                   0044f6f1 f libf:intrin.obj
 0001:0004e718       __FIanint                  0044f718 f libf:intrin.obj
 0001:0004e718       __FIIanint                 0044f718   libf:intrin.obj
 0001:0004e781       __FIIcdiv                  0044f781   libf:intrin.obj
 0001:0004e781       __FIcdiv                   0044f781 f libf:intrin.obj
 0001:0004e87d       __FIcpow                   0044f87d f libf:intrin.obj
 0001:0004e973       __FIcabs                   0044f973 f libf:intrin.obj
 0001:0004e9e7       __FIccos                   0044f9e7 f libf:intrin.obj
 0001:0004ea50       __FIcsin                   0044fa50 f libf:intrin.obj
 0001:0004eab7       __FIcexp                   0044fab7 f libf:intrin.obj
 0001:0004eb08       __FIclog                   0044fb08 f libf:intrin.obj
 0001:0004eb5c       __FIcsqrt                  0044fb5c f libf:intrin.obj
 0001:0004ec10       _mkatmp_i1                 0044fc10 f libf:memory.obj
 0001:0004ec80       _mkatmp_i2                 0044fc80 f libf:memory.obj
 0001:0004ecf0       _mkatmp_i                  0044fcf0 f libf:memory.obj
 0001:0004ed60       _mkatmp_r                  0044fd60 f libf:memory.obj
 0001:0004edd0       _mkatmp_d                  0044fdd0 f libf:memory.obj
 0001:0004ee40       _mkatmp_c                  0044fe40 f libf:memory.obj
 0001:0004eeb0       _mkatmp_dc                 0044feb0 f libf:memory.obj
 0001:0004ef20       _mkatmp_l                  0044ff20 f libf:memory.obj
 0001:0004ef90       _mkatmp_l1                 0044ff90 f libf:memory.obj
 0001:0004f000       _mkatmp_l2                 00450000 f libf:memory.obj
 0001:0004f070       _mkatmp_ch                 00450070 f libf:memory.obj
 0001:0004f0e0       _freevec_i                 004500e0 f libf:memory.obj
 0001:0004f120       _freevec_i1                00450120 f libf:memory.obj
 0001:0004f160       _freevec_i2                00450160 f libf:memory.obj
 0001:0004f1a0       _freevec_r                 004501a0 f libf:memory.obj
 0001:0004f1e0       _freevec_d                 004501e0 f libf:memory.obj
 0001:0004f220       _freevec_c                 00450220 f libf:memory.obj
 0001:0004f260       _freevec_dc                00450260 f libf:memory.obj
 0001:0004f2a0       _freevec_l                 004502a0 f libf:memory.obj
 0001:0004f2e0       _freevec_l1                004502e0 f libf:memory.obj
 0001:0004f320       _freevec_l2                00450320 f libf:memory.obj
 0001:0004f360       _freevec_ch                00450360 f libf:memory.obj
 0001:0004f3a0       _pAlloc                    004503a0 f libf:memory.obj
 0001:0004f3e0       _aAlloc                    004503e0 f libf:memory.obj
 0001:0004f420       _pDeAlloc                  00450420 f libf:memory.obj
 0001:0004f540       _aaDeAlloc                 00450540 f libf:memory.obj
 0001:0004f5b0       __Allocate_s               004505b0 f libf:memory.obj
 0001:0004f600       __Deallocate_s             00450600 f libf:memory.obj
 0001:0004f640       __Allocate_a               00450640 f libf:memory.obj
 0001:0004f700       __Allocate_ca              00450700 f libf:memory.obj
 0001:0004f7d0       __Deallocate_a             004507d0 f libf:memory.obj
 0001:0004f840       __Deallocate_ca            00450840 f libf:memory.obj
 0001:0004f8b0       _make_info                 004508b0 f libf:memory.obj
 0001:0004f930       __Allocate_i               00450930 f libf:memory.obj
 0001:0004f9f0       __check_Allocate_i         004509f0 f libf:memory.obj
 0001:0004fa40       __Deallocate_i             00450a40 f libf:memory.obj
 0001:0004fac0       __check_Alloc              00450ac0 f libf:memory.obj
 0001:0004faf0       _assume_shape              00450af0 f libf:memory.obj
 0001:0004fb60       _assume_chshape            00450b60 f libf:memory.obj
 0001:0004fbc0       _RANDOM@4                  00450bc0 f libf:random77.obj
 0001:0004fbd0       _SEED@4                    00450bd0 f libf:random77.obj
 0001:0004fc20       _lbound_info               00450c20 f libf:lb_info.obj
 0001:0004fc80       _ubound_fixed              00450c80 f libf:ubound.obj
 0001:0004fcf0       _ubound_afixed             00450cf0 f libf:ubound.obj
 0001:0004fd80       _ubound_ptr                00450d80 f libf:ubound.obj
 0001:0004fde0       _ubound_cptr               00450de0 f libf:ubound.obj
 0001:0004fe40       _ubound_info               00450e40 f libf:ubound.obj
 0001:0004fea0       _ubound_ainfo              00450ea0 f libf:ubound.obj
 0001:0004ff10       _ubound_vector             00450f10 f libf:ubound.obj
 0001:0004ff60       __FFsSTOP                  00450f60 f libf:sstop.obj
 0001:0004ffb0       _f90_rewind                00450fb0 f libf:crewind.obj
 0001:00050070       _lread_i                   00451070 f libf:clinput.obj
 0001:00050120       _lread_i1                  00451120 f libf:clinput.obj
 0001:000501d0       _lread_i2                  004511d0 f libf:clinput.obj
 0001:00050280       _lread_d                   00451280 f libf:clinput.obj
 0001:00050330       _lread_r                   00451330 f libf:clinput.obj
 0001:000503e0       _lread_dc                  004513e0 f libf:clinput.obj
 0001:00050490       _lread_c                   00451490 f libf:clinput.obj
 0001:00050540       _lread_l                   00451540 f libf:clinput.obj
 0001:000505f0       _lread_l2                  004515f0 f libf:clinput.obj
 0001:000506a0       _lread_l1                  004516a0 f libf:clinput.obj
 0001:00050750       _lread_ch                  00451750 f libf:clinput.obj
 0001:00050810       _f90_read                  00451810 f libf:cread.obj
 0001:00050a80       _f90_endread               00451a80 f libf:cread.obj
 0001:00050ae0       __FIstrcpy@24              00451ae0 f libf:intrnchr.obj
 0001:00050b50       __FIstraddr@16             00451b50 f libf:intrnchr.obj
 0001:00050b70       __FIstrcat                 00451b70 f libf:intrnchr.obj
 0001:00050c50       __FIpstrcat                00451c50 f libf:intrnchr.obj
 0001:00050d50       __FIdbgstrcpy@32           00451d50 f libf:intrnchr.obj
 0001:00050db0       __FIdbgstraddr@20          00451db0 f libf:intrnchr.obj
 0001:00050df0       __FIdbgstrcat              00451df0 f libf:intrnchr.obj
 0001:00050f70       __FIdbgpstrcat             00451f70 f libf:intrnchr.obj
 0001:000510b0       __FIvaxstrcpy@24           004520b0 f libf:intrnchr.obj
 0001:00051120       __FIvaxstrcat              00452120 f libf:intrnchr.obj
 0001:00051220       __FIpcleanup@4             00452220 f libf:intrnchr.obj
 0001:00051230       __FIclge@16                00452230 f libf:intrnchr.obj
 0001:00051260       __FIcleq@16                00452260 f libf:intrnchr.obj
 0001:00051290       __FIclne@16                00452290 f libf:intrnchr.obj
 0001:000512c0       __FIclgt@16                004522c0 f libf:intrnchr.obj
 0001:000512f0       __FIclle@16                004522f0 f libf:intrnchr.obj
 0001:00051320       __FIcllt@16                00452320 f libf:intrnchr.obj
 0001:00051350       _ccmp@16                   00452350 f libf:intrnchr.obj
 0001:00051420       __FIindex@20               00452420 f libf:intrnchr.obj
 0001:000515d0       __FIlentrim@8              004525d0 f libf:intrnchr.obj
 0001:000515f0       __FIscan@20                004525f0 f libf:intrnchr.obj
 0001:00051700       __FIverify@20              00452700 f libf:intrnchr.obj
 0001:00051800       __FIdbgarraysec            00452800 f libf:intrnchr.obj
 0001:000518a0       _GETTIM@16                 004528a0 f libf:timdat.obj
 0001:00051900       _GETDAT@12                 00452900 f libf:timdat.obj
 0001:00051940       _SETTIM@16                 00452940 f libf:timdat.obj
 0001:00051a70       _SETDAT@12                 00452a70 f libf:timdat.obj
 0001:00051b80       _crash                     00452b80 f libf:errors.obj
 0001:00051bd0       _io_abort                  00452bd0 f libf:errors.obj
 0001:00051c10       __FFalloc                  00452c10 f libf:alla.obj
 0001:00051ce0       __FFdeall                  00452ce0 f libf:alla.obj
 0001:00051d80       __FIIfexp                  00452d80 f libf:intrini.obj
 0001:00051daf       __FIItan                   00452daf f libf:intrini.obj
 0001:00051dde       __FIIlog                   00452dde f libf:intrini.obj
 0001:00051e0f       __FIIalog10                00452e0f f libf:intrini.obj
 0001:00051e40       __FIIacos                  00452e40 f libf:intrini.obj
 0001:00051e6f       __FIIcosh                  00452e6f f libf:intrini.obj
 0001:00051e9e       __FIIasin                  00452e9e f libf:intrini.obj
 0001:00051ecd       __FIIsinh                  00452ecd f libf:intrini.obj
 0001:00051efc       __FIIatan                  00452efc f libf:intrini.obj
 0001:00051f2b       __FIIatan2                 00452f2b f libf:intrini.obj
 0001:00051f5a       __FIItanh                  00452f5a f libf:intrini.obj
 0001:00051fa3       __FIIcotan                 00452fa3 f libf:intrini.obj
 0001:00051fd2       __FIIexp                   00452fd2 f libf:intrini.obj
 0001:00052001       __FIIamod                  00453001 f libf:intrini.obj
 0001:00052030       __FIIsign                  00453030 f libf:intrini.obj
 0001:00052054       __FIIdim                   00453054 f libf:intrini.obj
 0001:0005207d       __FIIcpow                  0045307d f libf:intrini.obj
 0001:0005213b       __FIIcabs                  0045313b f libf:intrini.obj
 0001:000521a5       __FIIccos                  004531a5 f libf:intrini.obj
 0001:000521f4       __FIIcsin                  004531f4 f libf:intrini.obj
 0001:00052241       __FIIcexp                  00453241 f libf:intrini.obj
 0001:00052281       __FIIclog                  00453281 f libf:intrini.obj
 0001:000522c7       __FIIcsqrt                 004532c7 f libf:intrini.obj
 0001:00052360       ___FF_nrectmo@0            00453360 f libf:nrectmo.obj
 0001:000523c0       ___FF_nrectmi@0            004533c0 f libf:nrectmi.obj
 0001:00052440       ___FF_nrecfso@0            00453440 f libf:nrecfso.obj
 0001:00052490       ___FF_nrecfsi@0            00453490 f libf:nrecfsi.obj
 0001:000524f0       ___FF_fmtout@4             004534f0 f libf:fmtout.obj
 0001:000529a0       ___FF_enclong@12           004539a0 f libf:wr.obj
 0001:00052a70       __FFwr                     00453a70 f libf:wr.obj
 0001:00052b60       __FFwr2                    00453b60 f libf:wr2.obj
 0001:00052bc0       ___FF_encflt@8             00453bc0 f libf:encflt.obj
 0001:00052f60       ___FF_nrecino@0            00453f60 f libf:nrecino.obj
 0001:00052fc0       ___FF_getname@4            00453fc0 f libf:core.obj
 0001:00053030       ___FF_xerrs@4              00454030 f libf:core.obj
 0001:00053070       __FFend                    00454070 f libf:core.obj
 0001:000531f0       __FFinit                   004541f0 f libf:core.obj
 0001:00053450       __FFinit_dll               00454450 f libf:core.obj
 0001:000535c0       ___FF_rmblanks@0           004545c0 f libf:core.obj
 0001:00053610       ___FFtk@12                 00454610 f libf:core.obj
 0001:00053790       ___FFgn@0                  00454790 f libf:core.obj
 0001:000537a0       ___FF_findrec@4            004547a0 f libf:core.obj
 0001:00053830       ___FFpu@4                  00454830 f libf:core.obj
 0001:000539a0       ___FF_searchunit@4         004549a0 f libf:core.obj
 0001:00053a80       ___FF_findunit@4           00454a80 f libf:core.obj
 0001:00053af0       ___FF_isdevice@0           00454af0 f libf:core.obj
 0001:00053c20       ___FF_searchfile@4         00454c20 f libf:core.obj
 0001:00053d20       ___FF_getfip@4             00454d20 f libf:core.obj
 0001:00053db0       ___FFio@12                 00454db0 f libf:core.obj
 0001:00053e30       ___FF_op@8                 00454e30 f libf:core.obj
 0001:000546d0       ___FF_werr@0               004556d0 f libf:core.obj
 0001:00054710       ___FF_flushbuf@8           00455710 f libf:core.obj
 0001:000548f0       ___FF_chw2r@0              004558f0 f libf:core.obj
 0001:00054970       ___FF_cl@12                00455970 f libf:core.obj
 0001:00054b80       ___FF_freefcb@12           00455b80 f libf:core.obj
 0001:00054c60       ___FF_chtmod@0             00455c60 f libf:core.obj
 0001:00054c90       ___FF_oread@8              00455c90 f libf:core.obj
 0001:00054da0       ___FF_owrite@4             00455da0 f libf:core.obj
 0001:00054dd0       ___FF_alloc@4              00455dd0 f libf:core.obj
 0001:00054e00       ___FF_getfcb@4             00455e00 f libf:core.obj
 0001:00054e70       ___FF_putds@8              00455e70 f libf:core.obj
 0001:00054ec0       __FFStubFunc@0             00455ec0 f libf:core.obj
 0001:00054ed0       _IsWindows                 00455ed0 f libf:core.obj
 0001:00054f10       _InitNullP                 00455f10 f libf:core.obj
 0001:00054f40       _CheckNullP                00455f40 f libf:core.obj
 0001:00054f70       _RError                    00455f70 f libf:core.obj
 0001:00054fc0       _GetStackSize              00455fc0 f libf:core.obj
 0001:00054fd0       _GetHandleQQ               00455fd0 f libf:core.obj
 0001:00054ff0       _f90_io_finish             00455ff0 f libf:cio.obj
 0001:00055000       _cidata_match              00456000 f libf:cio.obj
 0001:000550c0       __FFcls                    004560c0 f libf:cls.obj
 0001:000551f0       _CheckGlobalDescSize       004561f0 f libf:cdescr.obj
 0001:00055230       _AddWordToGlobalDesc       00456230 f libf:cdescr.obj
 0001:00055280       _AddLongToGlobalDesc       00456280 f libf:cdescr.obj
 0001:00055320       _AddRealToGlobalDesc       00456320 f libf:cdescr.obj
 0001:00055380       _Add8BytesToGlobalDesc     00456380 f libf:cdescr.obj
 0001:000553e0       _AddComplexToGlobalDesc    004563e0 f libf:cdescr.obj
 0001:00055450       _AddDComplexToGlobalDesc   00456450 f libf:cdescr.obj
 0001:000554d0       _AddStringToGlobalDesc     004564d0 f libf:cdescr.obj
 0001:00055570       _AddReadPtrToGlobalDesc    00456570 f libf:cdescr.obj
 0001:000555d0       _AddStrReadPtrToGlobalDesc 004565d0 f libf:cdescr.obj
 0001:00055630       _AddCmplxReadPtrToGlobalDesc 00456630 f libf:cdescr.obj
 0001:00055690       _AddDCmplxReadPtrToGlobalDesc 00456690 f libf:cdescr.obj
 0001:000556f0       _AddByteToDesc             004566f0 f libf:cdescr.obj
 0001:00055760       _AddStringToDesc           00456760 f libf:cdescr.obj
 0001:000557d0       _AddInqOpToGlobalDesc      004567d0 f libf:cdescr.obj
 0001:00055880       _AddInqOpToGlobalDesc2     00456880 f libf:cdescr.obj
 0001:00055910       _AddInqOpToInquireDesc     00456910 f libf:cdescr.obj
 0001:00055980       _AddInqOpToInquireDesc2    00456980 f libf:cdescr.obj
 0001:000559f0       _AddStringToGlobalList     004569f0 f libf:cdescr.obj
 0001:00055a60       _FreeGlobalStringList      00456a60 f libf:cdescr.obj
 0001:00055aa0       _CheckIOinIO               00456aa0 f libf:cdescr.obj
 0001:00055b60       _FinishIOinIO              00456b60 f libf:cdescr.obj
 0001:00055c20       __FFrd2                    00456c20 f libf:rd2.obj
 0001:00055c80       ___FF_declong@4            00456c80 f libf:rd.obj
 0001:00055d20       ___FF_login@0              00456d20 f libf:rd.obj
 0001:00055d80       __FFrd                     00456d80 f libf:rd.obj
 0001:00055e30       __FFopn                    00456e30 f libf:opn.obj
 0001:00056260       ___FF_puterr               00457260 f libf:puterr.obj
 0001:00056660       ___FF_error                00457660 f libf:puterr.obj
 0001:000568c0       __f90_updateeditdescs      004578c0 f libf:fmtcr.obj
 0001:000568f0       _gettok@0                  004578f0 f libf:fmtcr.obj
 0001:000569f0       _putint@4                  004579f0 f libf:fmtcr.obj
 0001:00056a20       _copyint@0                 00457a20 f libf:fmtcr.obj
 0001:00056a60       __FFfmtcr                  00457a60 f libf:fmtcr.obj
 0001:000574d0       _F90Error                  004584d0 f libf:cdreadu.obj
 0001:00057510       _f90_dreadu                00458510 f libf:cdreadu.obj
 0001:000575e0       _f90_enddreadu             004585e0 f libf:cdreadu.obj
 0001:00057630       __FFwrite_lk               00458630 f libf:ffwrite.obj
 0001:00057650       __FFwrite                  00458650 f libf:ffwrite.obj
 0001:00057720       __matherr                  00458720 f libf:matherr.obj
 0001:00057c10       _GetFpArgs                 00458c10 f libf:matherr.obj
 0001:00057c90       _SetFpReturn               00458c90 f libf:matherr.obj
 0001:00057d20       ___FF_mputerr              00458d20 f libf:matherr.obj
 0001:00058180       _FixMathExceptions         00459180 f libf:matherr.obj
 0001:000581b0       _MathSignal                004591b0 f libf:matherr.obj
 0001:000581f0       _InIntrinsic               004591f0 f libf:matherr.obj
 0001:00058200       _Alloc                     00459200 f libf:slowfit.obj
 0001:00058220       __DeAlloc                  00459220 f libf:slowfit.obj
 0001:00058230       __ReAlloc_90               00459230 f libf:slowfit.obj
 0001:00058270       ___FFgetseed               00459270 f libf:irand.obj
 0001:00058280       ___FFsetseed               00459280 f libf:irand.obj
 0001:00058290       ___FFresetseed             00459290 f libf:irand.obj
 0001:000582a0       ___FFirand                 004592a0 f libf:irand.obj
 0001:00058310       ___FFfrand                 00459310 f libf:irand.obj
 0001:00058330       ___FFdrand                 00459330 f libf:irand.obj
 0001:00058350       __FFrew                    00459350 f libf:rew.obj
 0001:000584b0       ___FF_fillbuf@0            004594b0 f libf:fillbuf.obj
 0001:000586b0       ___FF_getred@4             004596b0 f libf:getred.obj
 0001:00058e70       _stub0@0                   00459e70 f libf:iodec2.obj
 0001:00058e73       _stub1@4                   00459e73 f libf:iodec2.obj
 0001:00058e7c       _stub2@8                   00459e7c f libf:iodec2.obj
 0001:00058e90       ___FF_putbin@8             00459e90 f libf:putbin.obj
 0001:00059050       ___FF_getlong@0            0045a050 f libf:putbin.obj
 0001:000590c0       ___FFgm@8                  0045a0c0 f libf:getitem.obj
 0001:000591b0       ___FFgs@12                 0045a1b0 f libf:getitem.obj
 0001:00059200       _NumOccurences             0045a200 f libf:getitem.obj
 0001:00059240       ___FF_getitem@4            0045a240 f libf:getitem.obj
 0001:00059510       ___FF_trunc@0              0045a510 f libf:trunc.obj
 0001:00059590       ___FF_crkrw@0              0045a590 f libf:crkrw.obj
 0001:00059900       __arndfstr                 0045a900 f libf:arndfstr.obj
 0001:00059990       ___FF_dbgmsg@0             0045a990 f libf:dbgmsg.obj
 0001:00059a50       _FOCUSQQ@4                 0045aa50 f libf:focus32.obj
 0001:00059ab0       _INQFOCUSQQ@4              0045aab0 f libf:focus32.obj
 0001:00059b40       __unit2handle              0045ab40 f libf:focus32.obj
 0001:00059b90       _GETHANDLEQQ@4             0045ab90 f libf:focus32.obj
 0001:00059bc0       _GETUNITQQ@4               0045abc0 f libf:focus32.obj
 0001:00059bf0       _GETHWNDQQ@4               0045abf0 f libf:focus32.obj
 0001:00059c30       __FFread                   0045ac30 f libf:ffread.obj
 0001:00059d20       ___FF_cctl@4               0045ad20 f libf:cctl.obj
 0001:00059d90       ___FFgi@4                  0045ad90 f libf:gi.obj
 0001:00059e30       ___FF_strtol@8             0045ae30 f libf:fstrtol.obj
 0001:0005a0c0       ___FF_converchar@4         0045b0c0 f libf:fstrtol.obj
 0001:0005a110       __FRerror@4                0045b110 f libf:build.obj
 0001:0005a260       ___FF_ldin@4               0045b260 f libf:ldin.obj
 0001:0005a330       __FFuio                    0045b330 f libf:uio.obj
 0001:0005a610       _MATHERRQQ@20              0045b610 f libf:mhandler.obj
 0001:0005a620       ___FF_nrecini@0            0045b620 f libf:nrecini.obj
 0001:0005a640       ___FF_nrecfdi@0            0045b640 f libf:nrecfdi.obj
 0001:0005a6b0       ___FF_nrecfdo@0            0045b6b0 f libf:nrecfdo.obj
 0001:0005a710       ___FF_ldout@4              0045b710 f libf:ldout.obj
 0001:0005a810       ___FF_nlout@4              0045b810 f libf:nlout.obj
 0001:0005a9b0       ___FF_getchn@0             0045b9b0 f libf:fmtin.obj
 0001:0005ab60       ___FF_fmtin@4              0045bb60 f libf:fmtin.obj
 0001:0005b0c0       ___FF_getbounds@8          0045c0c0 f libf:nlin.obj
 0001:0005b110       ___FF_nlin@4               0045c110 f libf:nlin.obj
 0001:0005b840       ___FF_getnum@0             0045c840 f libf:getnum.obj
 0001:0005baa0       ___FF_putbint@8            0045caa0 f libf:tab.obj
 0001:0005bc70       ___FF_inrepo@4             0045cc70 f libf:tab.obj
 0001:0005bd80       ___FF_getnumt@0            0045cd80 f libf:tab.obj
 0001:0005be30       ___FF_getchnt@0            0045ce30 f libf:tab.obj
 0001:0005bed0       ___FF_bini@4               0045ced0 f libf:bini.obj
 0001:0005bf90       ___FF_ufseqi@4             0045cf90 f libf:ufseqi.obj
 0001:0005c150       ___FF_ufdiri@4             0045d150 f libf:ufdiri.obj
 0001:0005c260       ___FF_bino@4               0045d260 f libf:bino.obj
 0001:0005c3c0       ___FF_ufseqo@4             0045d3c0 f libf:ufseqo.obj
 0001:0005c5d0       ___FF_ufdiro@4             0045d5d0 f libf:ufdiro.obj
 0001:0005c6a0       ___FF_decflt@8             0045d6a0 f libf:decflt.obj
 0001:0005c790       ___FF_hex@0                0045d790 f libf:hex.obj
 0001:0005cc10       ___FF_bin@0                0045dc10 f libf:hex.obj
 0001:0005cef0       ___FF_oct@0                0045def0 f libf:hex.obj
 0001:0005d200       ___FF_input@0              0045e200 f libf:input.obj
 0001:0005d720       ___FF_output@0             0045e720 f libf:output.obj
 0001:0005d9c0       ___FF_intin@4              0045e9c0 f libf:intin.obj
 0001:0005da30       ___FF_getu_item@0          0045ea30 f libf:ugi.obj
 0001:0005daa0       _f90_readn                 0045eaa0 f libf:creadn.obj
 0001:0005e7e0       _insync_namelist           0045f7e0 f libf:creadn.obj
 0001:0005e7f0       _outsync_namelist          0045f7f0 f libf:creadn.obj
 0001:0005ed90       __fpmath                   0045fd90 f libc:fpinit.obj
 0001:0005edb0       __fpclear                  0045fdb0 f libc:fpinit.obj
 0001:0005edc0       __cfltcvt_init             0045fdc0 f libc:fpinit.obj
 0001:0005ee00       ___setfflag                0045fe00 f libc:fpinit.obj
 0001:0005ee10       __ftol                     0045fe10 f libc:ftol.obj
 0001:0005ee40       _mainCRTStartup            0045fe40 f libc:crt0.obj
 0001:0005ef50       __amsg_exit                0045ff50 f libc:crt0.obj
 0001:0005ef7c       __setjmp3                  0045ff7c f libc:setjmp3.obj
 0001:0005f000       __alloca_probe             00460000   libc:chkstk.obj
 0001:0005f000       __chkstk                   00460000   libc:chkstk.obj
 0001:0005f030       __itoa                     00460030 f libc:xtoa.obj
 0001:0005f0d0       __ltoa                     004600d0 f libc:xtoa.obj
 0001:0005f100       __ultoa                    00460100 f libc:xtoa.obj
 0001:0005f120       _strchr                    00460120 f libc:strchr.obj
 0001:0005f140       _sin                       00460140 f libc:87ctrig.obj
 0001:0005f14a       _cos                       0046014a f libc:87ctrig.obj
 0001:0005f151       _tan                       00460151 f libc:87ctrig.obj
 0001:0005f158       __CIsin                    00460158 f libc:87ctrig.obj
 0001:0005f162       __CIcos                    00460162 f libc:87ctrig.obj
 0001:0005f169       __CItan                    00460169 f libc:87ctrig.obj
 0001:0005f170       _sqrt                      00460170 f libc:87csqrt.obj
 0001:0005f17a       __CIsqrt                   0046017a f libc:87csqrt.obj
 0001:0005f190       _asin                      00460190 f libc:87ctriga.obj
 0001:0005f19a       _acos                      0046019a f libc:87ctriga.obj
 0001:0005f1a1       _atan                      004601a1 f libc:87ctriga.obj
 0001:0005f1a8       _atan2                     004601a8 f libc:87ctriga.obj
 0001:0005f1b2       __CIasin                   004601b2 f libc:87ctriga.obj
 0001:0005f1bc       __CIacos                   004601bc f libc:87ctriga.obj
 0001:0005f1c3       __CIatan                   004601c3 f libc:87ctriga.obj
 0001:0005f1ca       __CIatan2                  004601ca f libc:87ctriga.obj
 0001:0005f1e0       _pow                       004601e0 f libc:87ctran.obj
 0001:0005f1ea       _log                       004601ea f libc:87ctran.obj
 0001:0005f1f4       _log10                     004601f4 f libc:87ctran.obj
 0001:0005f1fb       _exp                       004601fb f libc:87ctran.obj
 0001:0005f202       __CIpow                    00460202 f libc:87ctran.obj
 0001:0005f20c       __CIlog                    0046020c f libc:87ctran.obj
 0001:0005f216       __CIlog10                  00460216 f libc:87ctran.obj
 0001:0005f21d       __CIexp                    0046021d f libc:87ctran.obj
 0001:0005f230       _sinh                      00460230 f libc:87ctrigh.obj
 0001:0005f23a       _cosh                      0046023a f libc:87ctrigh.obj
 0001:0005f241       _tanh                      00460241 f libc:87ctrigh.obj
 0001:0005f248       __CIsinh                   00460248 f libc:87ctrigh.obj
 0001:0005f252       __CIcosh                   00460252 f libc:87ctrigh.obj
 0001:0005f259       __CItanh                   00460259 f libc:87ctrigh.obj
 0001:0005f260       _fmod                      00460260 f libc:87fmod.obj
 0001:0005f26a       __CIfmod                   0046026a f libc:87fmod.obj
 0001:0005f2a0       _time                      004602a0 f libc:time.obj
 0001:0005f300       _clock                     00460300 f libc:clock.obj
 0001:0005f340       ___inittime                00460340 f libc:clock.obj
 0001:0005f350       __cinit                    00460350 f libc:crt0dat.obj
 0001:0005f380       _exit                      00460380 f libc:crt0dat.obj
 0001:0005f3a0       __exit                     004603a0 f libc:crt0dat.obj
 0001:0005f3c0       __cexit                    004603c0 f libc:crt0dat.obj
 0001:0005f3d0       __c_exit                   004603d0 f libc:crt0dat.obj
 0001:0005f480       _memmove                   00460480 f libc:memmove.obj
 0001:0005f5d0       _malloc                    004605d0 f libc:malloc.obj
 0001:0005f5f0       __nh_malloc                004605f0 f libc:malloc.obj
 0001:0005f630       __heap_alloc               00460630 f libc:malloc.obj
 0001:0005f650       _free                      00460650 f libc:free.obj
 0001:0005f670       _realloc                   00460670 f libc:realloc.obj
 0001:0005f6e0       _memchr                    004606e0 f libc:memchr.obj
 0001:0005f790       _printf                    00460790 f libc:printf.obj
 0001:0005f7d0       _abort                     004607d0 f libc:abort.obj
 0001:0005f7f0       _fputs                     004607f0 f libc:fputs.obj
 0001:0005f850       ___initstdio               00460850 f libc:_file.obj
 0001:0005f920       ___endstdio                00460920 f libc:_file.obj
 0001:0005f940       _vfprintf                  00460940 f libc:vfprintf.obj
 0001:0005f980       __isatty                   00460980 f libc:isatty.obj
 0001:0005f9b0       __fltout                   004609b0 f libc:cfout.obj
 0001:0005fa20       ___dtold                   00460a20 f libc:cfout.obj
 0001:0005fae0       _strncpy                   00460ae0 f libc:strncpy.obj
 0001:0005fb10       __onexit                   00460b10 f libc:onexit.obj
 0001:0005fb90       _atexit                    00460b90 f libc:onexit.obj
 0001:0005fbb0       ___onexitinit              00460bb0 f libc:onexit.obj
 0001:0005fbf0       __open                     00460bf0 f libc:open.obj
 0001:0005fc10       __sopen                    00460c10 f libc:open.obj
 0001:00060030       __FF_MSGBANNER             00461030 f libc:crt0msg.obj
 0001:00060070       __NMSG_WRITE               00461070 f libc:crt0msg.obj
 0001:00060260       __GET_RTERRMSG             00461260 f libc:crt0msg.obj
 0001:000602a0       __lseek                    004612a0 f libc:lseek.obj
 0001:00060360       __stricmp                  00461360 f libc:stricmp.obj
 0001:00060360       __strcmpi                  00461360   libc:stricmp.obj
 0001:000603f0       __alloc_osfhnd             004613f0 f libc:osfinfo.obj
 0001:000604b0       __set_osfhnd               004614b0 f libc:osfinfo.obj
 0001:00060560       __free_osfhnd              00461560 f libc:osfinfo.obj
 0001:000605f0       __get_osfhandle            004615f0 f libc:osfinfo.obj
 0001:00060640       __open_osfhandle           00461640 f libc:osfinfo.obj
 0001:000606f0       _remove                    004616f0 f libc:unlink.obj
 0001:00060720       __unlink                   00461720 f libc:unlink.obj
 0001:00060730       __access                   00461730 f libc:access.obj
 0001:00060780       __close                    00461780 f libc:close.obj
 0001:00060850       __write                    00461850 f libc:write.obj
 0001:00060a80       __toupper                  00461a80 f libc:toupper.obj
 0001:00060a90       _toupper                   00461a90 f libc:toupper.obj
 0001:00060b80       __isctype                  00461b80 f libc:isctype.obj
 0001:00060c20       __mktemp                   00461c20 f libc:mktemp.obj
 0001:00060cf4       _longjmp                   00461cf4 f libc:longjmp.obj
 0001:00060d70       _vsprintf                  00461d70 f libc:vsprintf.obj
 0001:00060de0       __setmode                  00461de0 f libc:setmode.obj
 0001:00060e60       _strncmp                   00461e60 f libc:strncmp.obj
 0001:00060ea0       _signal                    00461ea0 f libc:winsig.obj
 0001:00061050       _raise                     00462050 f libc:winsig.obj
 0001:00061220       __chsize                   00462220 f libc:chsize.obj
 0001:00061390       __read                     00462390 f libc:read.obj
 0001:00061600       __tolower                  00462600 f libc:tolower.obj
 0001:00061610       _tolower                   00462610 f libc:tolower.obj
 0001:00061700       __tell                     00462700 f libc:tell.obj
 0001:00061720       _strstr                    00462720 f libc:strstr.obj
 0001:00061760       _strcspn                   00462760 f libc:strcspn.obj
 0001:000617a0       __fltinf                   004627a0 f libc:fltinf.obj
 0001:00061870       __setdefaultprecision      00462870 f libc:fp8.obj
 0001:00061890       __ms_p5_test_fdiv          00462890 f libc:testfdiv.obj
 0001:000618e0       __ms_p5_mp_test_fdiv       004628e0 f libc:testfdiv.obj
 0001:00061a00       __forcdecpt                00462a00 f libc:cvt.obj
 0001:00061a70       __cropzeros                00462a70 f libc:cvt.obj
 0001:00061ad0       __positive                 00462ad0 f libc:cvt.obj
 0001:00061af0       __fassign                  00462af0 f libc:cvt.obj
 0001:00061b40       __cftoe                    00462b40 f libc:cvt.obj
 0001:00061c80       __cftof                    00462c80 f libc:cvt.obj
 0001:00061d80       __cftog                    00462d80 f libc:cvt.obj
 0001:00061e90       __cfltcvt                  00462e90 f libc:cvt.obj
 0001:00061f2c       __global_unwind2           00462f2c f libc:exsup.obj
 0001:00061f6e       __local_unwind2            00462f6e f libc:exsup.obj
 0001:00061fc6       __NLG_Return2              00462fc6   libc:exsup.obj
 0001:00061fd6       __abnormal_termination     00462fd6 f libc:exsup.obj
 0001:00061ff9       __NLG_Notify1              00462ff9 f libc:exsup.obj
 0001:00062002       __NLG_Notify               00463002 f libc:exsup.obj
 0001:00062015       __NLG_Dispatch             00463015   libc:exsup.obj
 0001:00062020       __XcptFilter               00463020 f libc:winxfltr.obj
 0001:000621b0       __setenvp                  004631b0 f libc:stdenvp.obj
 0001:00062290       __setargv                  00463290 f libc:stdargv.obj
 0001:00062510       ___crtGetEnvironmentStringsW 00463510 f libc:aw_env.obj
 0001:00062710       ___crtGetEnvironmentStringsA 00463710 f libc:aw_env.obj
 0001:000628b0       __setmbcp                  004638b0 f libc:mbctype.obj
 0001:00062b70       __getmbcp                  00463b70 f libc:mbctype.obj
 0001:00062b80       ___initmbctable            00463b80 f libc:mbctype.obj
 0001:00062b90       __ioinit                   00463b90 f libc:ioinit.obj
 0001:00062d70       __ioterm                   00463d70 f libc:ioinit.obj
 0001:00062da0       __heap_init                00463da0 f libc:heapinit.obj
 0001:00062dc0       __heap_term                00463dc0 f libc:heapinit.obj
 0001:00062dd8       __except_handler3          00463dd8 f libc:exsup3.obj
 0001:00062e95       __seh_longjmp_unwind@4     00463e95 f libc:exsup3.obj
 0001:00062eb0       __fFCOS                    00463eb0   libc:87trig.obj
 0001:00062eba       __fFSIN                    00463eba   libc:87trig.obj
 0001:00062ee0       __cintrindisp2             00463ee0 f libc:87cdisp.obj
 0001:00062f1e       __cintrindisp1             00463f1e f libc:87cdisp.obj
 0001:00062f54       __ctrandisp2               00463f54 f libc:87cdisp.obj
 0001:000630c5       __ctrandisp1               004640c5 f libc:87cdisp.obj
 0001:000630f1       __fload                    004640f1 f libc:87cdisp.obj
 0001:0006316c       __fFATN2                   0046416c   libc:87triga.obj
 0001:000631bc       __rtpiby2                  004641bc   libc:87triga.obj
 0001:00063211       __fFEXP                    00464211   libc:87tran.obj
 0001:00063278       __rtinfpopse               00464278   libc:87tran.obj
 0001:0006327a       __rtinfnpopse              0046427a   libc:87tran.obj
 0001:0006328a       __fFLN                     0046428a   libc:87tran.obj
 0001:0006333f       __rtinfpop                 0046433f   libc:87tran.obj
 0001:00063341       __rtinfnpop                00464341   libc:87tran.obj
 0001:0006335e       __ffexpm1                  0046435e   libc:87tran.obj
 0001:00063410       __fFSINH                   00464410   libc:87trigh.obj
 0001:00063462       __fFCOSH                   00464462   libc:87trigh.obj
 0001:00063510       __trandisp1                00464510 f libc:87disp.obj
 0001:00063577       __trandisp2                00464577 f libc:87disp.obj
 0001:00063603       __rttospopde               00464603   libc:87disp.obj
 0001:00063608       __rttospop                 00464608   libc:87disp.obj
 0001:0006360a       __rtnospop                 0046460a   libc:87disp.obj
 0001:0006360c       __rttosnpop                0046460c   libc:87disp.obj
 0001:0006360d       __rtnospopde               0046460d   libc:87disp.obj
 0001:00063614       __rtzeropop                00464614   libc:87disp.obj
 0001:00063616       __rtzeronpop               00464616   libc:87disp.obj
 0001:0006361b       __rtonepop                 0046461b   libc:87disp.obj
 0001:0006361d       __rtonenpop                0046461d   libc:87disp.obj
 0001:00063622       __tosnan1                  00464622   libc:87disp.obj
 0001:0006364d       __nosnan2                  0046464d   libc:87disp.obj
 0001:0006364f       __tosnan2                  0046464f   libc:87disp.obj
 0001:00063677       __nan2                     00464677   libc:87disp.obj
 0001:000636b6       __rtindfpop                004646b6   libc:87disp.obj
 0001:000636b8       __rtindfnpop               004646b8   libc:87disp.obj
 0001:000636c9       __rttosnpopde              004646c9   libc:87disp.obj
 0001:000636d3       __rtchsifneg               004646d3   libc:87disp.obj
 0001:000636e0       _fdiv_main_routine         004646e0 f libc:adj_fdiv.obj
 0001:000637f7       __adj_fdiv_r               004647f7 f libc:adj_fdiv.obj
 0001:00063c96       __fdivp_sti_st             00464c96 f libc:adj_fdiv.obj
 0001:00063ca9       __fdivrp_sti_st            00464ca9 f libc:adj_fdiv.obj
 0001:00063cbc       __adj_fdiv_m32             00464cbc f libc:adj_fdiv.obj
 0001:00063d08       __adj_fdiv_m64             00464d08 f libc:adj_fdiv.obj
 0001:00063d54       __adj_fdiv_m16i            00464d54 f libc:adj_fdiv.obj
 0001:00063d88       __adj_fdiv_m32i            00464d88 f libc:adj_fdiv.obj
 0001:00063dbc       __adj_fdivr_m32            00464dbc f libc:adj_fdiv.obj
 0001:00063e08       __adj_fdivr_m64            00464e08 f libc:adj_fdiv.obj
 0001:00063e54       __adj_fdivr_m16i           00464e54 f libc:adj_fdiv.obj
 0001:00063e88       __adj_fdivr_m32i           00464e88 f libc:adj_fdiv.obj
 0001:00063ebc       __safe_fdiv                00464ebc f libc:adj_fdiv.obj
 0001:00063ed1       __safe_fdivr               00464ed1 f libc:adj_fdiv.obj
 0001:00063ee6       __fprem_common             00464ee6 f libc:adj_fdiv.obj
 0001:000640ec       __adj_fprem                004650ec f libc:adj_fdiv.obj
 0001:0006419e       __fprem1_common            0046519e f libc:adj_fdiv.obj
 0001:000643a4       __adj_fprem1               004653a4 f libc:adj_fdiv.obj
 0001:00064459       __safe_fprem               00465459 f libc:adj_fdiv.obj
 0001:0006445f       __safe_fprem1              0046545f f libc:adj_fdiv.obj
 0001:00064465       __adj_fpatan               00465465 f libc:adj_fdiv.obj
 0001:00064468       __adj_fptan                00465468 f libc:adj_fdiv.obj
 0001:00064470       ___loctotime_t             00465470 f libc:dtoxtime.obj
 0001:00064550       __ftime                    00465550 f libc:ftime.obj
 0001:00064600       ?_set_new_handler@@YAP6AHI@ZP6AHI@Z@Z 00465600 f libc:handler.obj
 0001:00064610       ?_query_new_handler@@YAP6AHI@ZXZ 00465610 f libc:handler.obj
 0001:00064620       ?set_new_handler@@YAP6AXXZP6AXXZ@Z 00465620 f libc:handler.obj
 0001:00064650       __callnewh                 00465650 f libc:handler.obj
 0001:00064680       __stbuf                    00465680 f libc:_sftbuf.obj
 0001:00064720       __ftbuf                    00465720 f libc:_sftbuf.obj
 0001:00064770       __output                   00465770 f libc:output.obj
 0001:00065260       _fwrite                    00466260 f libc:fwrite.obj
 0001:000653e0       _calloc                    004663e0 f libc:calloc.obj
 0001:00065440       __fcloseall                00466440 f libc:closeall.obj
 0001:000654c0       _fflush                    004664c0 f libc:fflush.obj
 0001:00065510       __flush                    00466510 f libc:fflush.obj
 0001:00065580       __flushall                 00466580 f libc:fflush.obj
 0001:00065600       _$I10_OUTPUT               00466600 f libc:x10fout.obj
 0001:000659a0       __msize                    004669a0 f libc:msize.obj
 0001:000659c0       __dosmaperr                004669c0 f libc:dosmap.obj
 0001:00065a30       ___crtMessageBoxA          00466a30 f libc:crtmbox.obj
 0001:00065ad0       ___crtLCMapStringW         00466ad0 f libc:aw_map.obj
 0001:00065d20       ___crtLCMapStringA         00466d20 f libc:aw_map.obj
 0001:00065f80       ___crtGetStringTypeW       00466f80 f libc:aw_str.obj
 0001:00066140       ___crtGetStringTypeA       00467140 f libc:aw_str.obj
 0001:00066270       __ismbstrail               00467270 f libc:ismbstr.obj
 0001:000662d0       __getpid                   004672d0 f libc:getpid.obj
 0001:000662e0       __rt_probe_read4@4         004672e0 f libc:sehsupp.obj
 0001:00066360       __flsbuf                   00467360 f libc:_flsbuf.obj
 0001:000664b0       __ZeroTail                 004674b0 f libc:intrncvt.obj
 0001:00066520       __IncMan                   00467520 f libc:intrncvt.obj
 0001:00066590       __RoundMan                 00467590 f libc:intrncvt.obj
 0001:00066640       __CopyMan                  00467640 f libc:intrncvt.obj
 0001:00066660       __FillZeroMan              00467660 f libc:intrncvt.obj
 0001:00066670       __IsZeroMan                00467670 f libc:intrncvt.obj
 0001:00066690       __ShrMan                   00467690 f libc:intrncvt.obj
 0001:00066740       __ld12cvt                  00467740 f libc:intrncvt.obj
 0001:00066910       __ld12tod                  00467910 f libc:intrncvt.obj
 0001:00066930       __ld12tof                  00467930 f libc:intrncvt.obj
 0001:00066950       __ld12told                 00467950 f libc:intrncvt.obj
 0001:000669e0       __atodbl                   004679e0 f libc:intrncvt.obj
 0001:00066a20       __atoldbl                  00467a20 f libc:intrncvt.obj
 0001:00066a60       __atoflt                   00467a60 f libc:intrncvt.obj
 0001:00066aa0       ___strgtold12              00467aa0 f libc:strgtold.obj
 0001:000671f0       ___STRINGTOLD              004681f0 f libc:strgtold.obj
 0001:00067240       __statusfp                 00468240 f libc:ieee87.obj
 0001:00067260       __clearfp                  00468260 f libc:ieee87.obj
 0001:00067280       __control87                00468280 f libc:ieee87.obj
 0001:000672c0       __controlfp                004682c0 f libc:ieee87.obj
 0001:000672e0       __fpreset                  004682e0 f libc:ieee87.obj
 0001:00067490       __fptrap                   00468490 f libc:crt0fp.obj
 0001:000674a0       __fptostr                  004684a0 f libc:_fptostr.obj
 0001:00067530       _wcslen                    00468530 f libc:wcslen.obj
 0001:00067550       __87except                 00468550 f libc:87except.obj
 0001:00067670       __powhlp                   00468670 f libc:powhlp.obj
 0001:000678c0       __d_inttype                004688c0 f libc:powhlp.obj
 0001:00067940       ___tzset                   00468940 f libc:tzset.obj
 0001:00067960       __tzset                    00468960 f libc:tzset.obj
 0001:00067ba0       __isindst                  00468ba0 f libc:tzset.obj
 0001:00067c70       _mktime                    00468c70 f libc:mktime.obj
 0001:00067c80       __mkgmtime                 00468c80 f libc:mktime.obj
 0001:00067ef0       __assert                   00468ef0 f libc:assert.obj
 0001:00068440       _wctomb                    00469440 f libc:wctomb.obj
 0001:000684e0       __aulldiv                  004694e0 f libc:ulldiv.obj
 0001:00068550       __aullrem                  00469550 f libc:ullrem.obj
 0001:000685d0       _fclose                    004695d0 f libc:fclose.obj
 0001:00068640       __commit                   00469640 f libc:commit.obj
 0001:000686b0       ___addl                    004696b0 f libc:mantold.obj
 0001:000686e0       ___add_12                  004696e0 f libc:mantold.obj
 0001:00068750       ___shl_12                  00469750 f libc:mantold.obj
 0001:00068790       ___shr_12                  00469790 f libc:mantold.obj
 0001:000687d0       ___mtold12                 004697d0 f libc:mantold.obj
 0001:000688c0       ___ld12mul                 004698c0 f libc:tenpow.obj
 0001:00068b70       ___multtenpow12            00469b70 f libc:tenpow.obj
 0001:00068bf0       __getbuf                   00469bf0 f libc:_getbuf.obj
 0001:00068c40       __handle_qnan1             00469c40 f libc:fpexcept.obj
 0001:00068c90       __handle_qnan2             00469c90 f libc:fpexcept.obj
 0001:00068d00       __except1                  00469d00 f libc:fpexcept.obj
 0001:00068dc0       __except2                  00469dc0 f libc:fpexcept.obj
 0001:00068eb0       __raise_exc                00469eb0 f libc:fpexcept.obj
 0001:00069220       __handle_exc               0046a220 f libc:fpexcept.obj
 0001:000694e0       __umatherr                 0046a4e0 f libc:fpexcept.obj
 0001:00069590       __set_errno                0046a590 f libc:fpexcept.obj
 0001:000695f0       __errcode                  0046a5f0 f libc:fpexcept.obj
 0001:00069630       __statfp                   0046a630 f libc:fpctrl.obj
 0001:00069650       __clrfp                    0046a650 f libc:fpctrl.obj
 0001:00069670       __ctrlfp                   0046a670 f libc:fpctrl.obj
 0001:000696b0       __set_statfp               0046a6b0 f libc:fpctrl.obj
 0001:00069710       __set_exp                  0046a710 f libc:util.obj
 0001:00069750       __get_exp                  0046a750 f libc:util.obj
 0001:00069770       __add_exp                  0046a770 f libc:util.obj
 0001:000697a0       __set_bexp                 0046a7a0 f libc:util.obj
 0001:000697e0       __sptype                   0046a7e0 f libc:util.obj
 0001:00069850       __decomp                   0046a850 f libc:util.obj
 0001:00069940       __frnd                     0046a940 f libc:frnd.obj
 0001:00069960       __copysign                 0046a960 f libc:ieeemisc.obj
 0001:00069990       __chgsign                  0046a990 f libc:ieeemisc.obj
 0001:000699b0       __scalb                    0046a9b0 f libc:ieeemisc.obj
 0001:000699d0       __logb                     0046a9d0 f libc:ieeemisc.obj
 0001:00069af0       __nextafter                0046aaf0 f libc:ieeemisc.obj
 0001:00069e00       __finite                   0046ae00 f libc:ieeemisc.obj
 0001:00069e20       __isnan                    0046ae20 f libc:ieeemisc.obj
 0001:00069e50       __fpclass                  0046ae50 f libc:ieeemisc.obj
 0001:00069f00       _atol                      0046af00 f libc:atox.obj
 0001:00069fb0       _atoi                      0046afb0 f libc:atox.obj
 0001:00069fc0       _getenv                    0046afc0 f libc:getenv.obj
 0001:0006a060       _gmtime                    0046b060 f libc:gmtime.obj
 0001:0006a1b0       _localtime                 0046b1b0 f libc:localtim.obj
 0001:0006a360       _fprintf                   0046b360 f libc:fprintf.obj
 0001:0006a3a0       _setvbuf                   0046b3a0 f libc:setvbuf.obj
 0001:0006a460       _strncat                   0046b460 f libc:strncat.obj
 0001:0006a4a0       __freebuf                  0046b4a0 f libc:_freebuf.obj
 0001:0006a4e0       _ldexp                     0046b4e0 f libc:ldexp.obj
 0001:0006a760       __mbsnbicoll               0046b760 f libc:mbsnbico.obj
 0001:0006a7a0       ___wtomb_environ           0046b7a0 f libc:wtombenv.obj
 0001:0006a830       ___crtCompareStringW       0046b830 f libc:aw_cmp.obj
 0001:0006aab0       ___crtCompareStringA       0046bab0 f libc:aw_cmp.obj
 0001:0006add0       ___crtsetenv               0046bdd0 f libc:setenv.obj
 0001:0006b100       __mbschr                   0046c100 f libc:mbschr.obj
 0001:0006b190       __strdup                   0046c190 f libc:strdup.obj
 0001:0006b1c0       _strlen                    0046c1c0 f libc:strlen.obj
 0001:0006b240       _strcpy                    0046c240 f libc:strcat.obj
 0001:0006b248       _strcat                    0046c248 f libc:strcat.obj
 0001:0006b328       _AdjustTokenPrivileges@24  0046c328 f advapi32:ADVAPI32.dll
 0001:0006b32e       _LookupPrivilegeValueA@12  0046c32e f advapi32:ADVAPI32.dll
 0001:0006b334       _OpenProcessToken@12       0046c334 f advapi32:ADVAPI32.dll
 0001:0006b33a       _GetCommandLineA@0         0046c33a f kernel32:KERNEL32.dll
 0001:0006b340       _GetLocalTime@4            0046c340 f kernel32:KERNEL32.dll
 0001:0006b346       _SetLocalTime@4            0046c346 f kernel32:KERNEL32.dll
 0001:0006b34c       _GetCurrentProcess@0       0046c34c f kernel32:KERNEL32.dll
 0001:0006b352       _GetACP@0                  0046c352 f kernel32:KERNEL32.dll
 0001:0006b358       _GetVersion@0              0046c358 f kernel32:KERNEL32.dll
 0001:0006b35e       _SetHandleCount@4          0046c35e f kernel32:KERNEL32.dll
 0001:0006b364       _GetFileInformationByHandle@8 0046c364 f kernel32:KERNEL32.dll
 0001:0006b36a       _CloseHandle@4             0046c36a f kernel32:KERNEL32.dll
 0001:0006b370       _CreateFileA@28            0046c370 f kernel32:KERNEL32.dll
 0001:0006b376       _ExitProcess@4             0046c376 f kernel32:KERNEL32.dll
 0001:0006b37c       _HeapAlloc@12              0046c37c f kernel32:KERNEL32.dll
 0001:0006b382       _HeapFree@12               0046c382 f kernel32:KERNEL32.dll
 0001:0006b388       _HeapReAlloc@16            0046c388 f kernel32:KERNEL32.dll
 0001:0006b38e       _GetLastError@0            0046c38e f kernel32:KERNEL32.dll
 0001:0006b394       _GetFileType@4             0046c394 f kernel32:KERNEL32.dll
 0001:0006b39a       _WriteFile@20              0046c39a f kernel32:KERNEL32.dll
 0001:0006b3a0       _GetStdHandle@4            0046c3a0 f kernel32:KERNEL32.dll
 0001:0006b3a6       _GetModuleFileNameA@12     0046c3a6 f kernel32:KERNEL32.dll
 0001:0006b3ac       _SetFilePointer@16         0046c3ac f kernel32:KERNEL32.dll
 0001:0006b3b2       _SetStdHandle@8            0046c3b2 f kernel32:KERNEL32.dll
 0001:0006b3b8       _DeleteFileA@4             0046c3b8 f kernel32:KERNEL32.dll
 0001:0006b3be       _GetFileAttributesA@4      0046c3be f kernel32:KERNEL32.dll
 0001:0006b3c4       _SetConsoleCtrlHandler@8   0046c3c4 f kernel32:KERNEL32.dll
 0001:0006b3ca       _SetEndOfFile@4            0046c3ca f kernel32:KERNEL32.dll
 0001:0006b3d0       _ReadFile@20               0046c3d0 f kernel32:KERNEL32.dll
 0001:0006b3d6       _GetProcAddress@8          0046c3d6 f kernel32:KERNEL32.dll
 0001:0006b3dc       _LoadLibraryA@4            0046c3dc f kernel32:KERNEL32.dll
 0001:0006b3e2       _RtlUnwind@16              0046c3e2 f kernel32:KERNEL32.dll
 0001:0006b3e8       _UnhandledExceptionFilter@4 0046c3e8 f kernel32:KERNEL32.dll
 0001:0006b3ee       _FreeEnvironmentStringsA@4 0046c3ee f kernel32:KERNEL32.dll
 0001:0006b3f4       _MultiByteToWideChar@24    0046c3f4 f kernel32:KERNEL32.dll
 0001:0006b3fa       _GetEnvironmentStrings@0   0046c3fa f kernel32:KERNEL32.dll
 0001:0006b400       _FreeEnvironmentStringsW@4 0046c400 f kernel32:KERNEL32.dll
 0001:0006b406       _GetEnvironmentStringsW@0  0046c406 f kernel32:KERNEL32.dll
 0001:0006b40c       _WideCharToMultiByte@32    0046c40c f kernel32:KERNEL32.dll
 0001:0006b412       _GetCPInfo@8               0046c412 f kernel32:KERNEL32.dll
 0001:0006b418       _GetOEMCP@0                0046c418 f kernel32:KERNEL32.dll
 0001:0006b41e       _GetStartupInfoA@4         0046c41e f kernel32:KERNEL32.dll
 0001:0006b424       _HeapCreate@12             0046c424 f kernel32:KERNEL32.dll
 0001:0006b42a       _HeapDestroy@4             0046c42a f kernel32:KERNEL32.dll
 0001:0006b430       _HeapSize@12               0046c430 f kernel32:KERNEL32.dll
 0001:0006b436       _LCMapStringA@24           0046c436 f kernel32:KERNEL32.dll
 0001:0006b43c       _LCMapStringW@24           0046c43c f kernel32:KERNEL32.dll
 0001:0006b442       _GetStringTypeA@20         0046c442 f kernel32:KERNEL32.dll
 0001:0006b448       _GetStringTypeW@16         0046c448 f kernel32:KERNEL32.dll
 0001:0006b44e       _GetCurrentProcessId@0     0046c44e f kernel32:KERNEL32.dll
 0001:0006b454       _GetTimeZoneInformation@4  0046c454 f kernel32:KERNEL32.dll
 0001:0006b45a       _FlushFileBuffers@4        0046c45a f kernel32:KERNEL32.dll
 0001:0006b460       _RaiseException@16         0046c460 f kernel32:KERNEL32.dll
 0001:0006b466       _CompareStringA@24         0046c466 f kernel32:KERNEL32.dll
 0001:0006b46c       _CompareStringW@24         0046c46c f kernel32:KERNEL32.dll
 0001:0006b472       _SetEnvironmentVariableA@8 0046c472 f kernel32:KERNEL32.dll
 0001:0006b480       __QWINGethWnd              0046c480 f console:console.obj
 0001:0006b4a0       __QWINTGethFrame           0046c4a0 f console:console.obj
 0001:0006b4c0       __QWINGetFocus             0046c4c0 f console:console.obj
 0001:0006b4e0       __QWINGetDefaultWindow     0046c4e0 f console:console.obj
 0001:0006b500       _ChangeQWINCP              0046c500 f console:console.obj
 0001:0006b510       __QWINGetFileName          0046c510 f console:console.obj
 0001:0006b520       __wgopen                   0046c520 f console:console.obj
 0001:0006b530       __QWINClose                0046c530 f console:console.obj
 0001:0006b540       __wgsetactive              0046c540 f console:console.obj
 0001:0006b550       __wggetactive              0046c550 f console:console.obj
 0001:0006b560       _RegisterGetHandleQQ       0046c560 f console:console.obj
 0001:0006b570       _RegisterGetUnitQQ         0046c570 f console:console.obj
 0001:0006b580       __QWINWrite                0046c580 f console:console.obj
 0001:0006b590       __QWINSetIOFOCUS           0046c590 f console:console.obj
 0001:0006b5a0       __QWINRead                 0046c5a0 f console:console.obj
 0001:0006b5b0       _YIELDQQ@0                 0046c5b0 f console:console.obj
 0001:0006b5c0       __QWINSetSize              0046c5c0 f console:console.obj
 0001:0006b5d0       __QWINGetSize              0046c5d0 f console:console.obj
 0001:0006b5e0       __QWINMsgBox               0046c5e0 f console:console.obj
 0001:0006b5f0       __QWINRegisterInit         0046c5f0 f console:console.obj
 0001:0006b600       __QWINRegisterEnd          0046c600 f console:console.obj
 0001:0006b610       __inchar                   0046c610 f console:console.obj
 0001:0006b620       __QWINNiceExit             0046c620 f console:console.obj
 0001:0006b630       __QWINSetFocus             0046c630 f console:console.obj
 0001:0006b650       __clearscreen              0046c650 f console:console.obj
 0001:0006b660       __displaycursor            0046c660 f console:console.obj
 0001:0006b670       __scrolltextwindow         0046c670 f console:console.obj
 0001:0006b680       __f_gettextposition@4      0046c680 f console:console.obj
 0001:0006b690       __f_outtext@8              0046c690 f console:console.obj
 0001:0006b6a0       __f_settextposition@12     0046c6a0 f console:console.obj
 0002:00000a08       __FFtype                   0046da08   libf:core.obj
 0002:00000a18       __FFdatasizes              0046da18   libf:core.obj
 0002:00000a28       __FFherrout                0046da28   libf:core.obj
 0002:00000a30       __FFldintfmt               0046da30   libf:core.obj
 0002:00000a48       __FFldfltfmt               0046da48   libf:core.obj
 0002:00000a88       __FFmaxunits               0046da88   libf:unit77.obj
 0002:00000b10       ___lookuptable             0046db10   libc:output.obj
 0002:00000b98       ___dnames                  0046db98   libc:timeset.obj
 0002:00000bb0       ___mnames                  0046dbb0   libc:timeset.obj
 0003:00000000       ___xc_a                    0046e000   libc:crt0init.obj
 0003:00000004       ___xc_z                    0046e004   libc:crt0init.obj
 0003:00000008       ___xi_a                    0046e008   libc:crt0init.obj
 0003:00000024       ___xi_z                    0046e024   libc:crt0init.obj
 0003:00000028       ___xp_a                    0046e028   libc:crt0init.obj
 0003:00000030       ___xp_z                    0046e030   libc:crt0init.obj
 0003:00000034       ___xt_a                    0046e034   libc:crt0init.obj
 0003:00000038       ___xt_z                    0046e038   libc:crt0init.obj
 0003:00004cf4       __FFpharlap                00472cf4   libf:fortstr.obj
 0003:00004d45       __FFljj                    00472d45   libf:fortstr.obj
 0003:00004db4       _mem11357                  00472db4   libf:intrin.obj
 0003:00004dbc       __FFzero                   00472dbc   libf:intrin.obj
 0003:00004dc4       __FFhalf                   00472dc4   libf:intrin.obj
 0003:00004dcc       __FFone                    00472dcc   libf:intrin.obj
 0003:00004dd4       __FFtwo                    00472dd4   libf:intrin.obj
 0003:00004ddc       __FFten                    00472ddc   libf:intrin.obj
 0003:00004de4       __FFline                   00472de4   libf:intrin.obj
 0003:00004de8       _pinuse                    00472de8   libf:memory.obj
 0003:00004dec       _ainuse                    00472dec   libf:memory.obj
 0003:00004f78       __FFstktop                 00472f78   libf:core.obj
 0003:00004f7c       __FFstkbot                 00472f7c   libf:core.obj
 0003:00004f80       __FFstksize                00472f80   libf:core.obj
 0003:00004f88       __FFgd                     00472f88   libf:core.obj
 0003:00005328       __FFTerminate              00473328   libf:core.obj
 0003:0000532c       __FFconfig                 0047332c   libf:core.obj
 0003:00005330       __FFfn                     00473330   libf:core.obj
 0003:00005458       __FFffsequence             00473458   libf:core.obj
 0003:00005460       __FFnewline                00473460   libf:core.obj
 0003:000054b8       __pFFinit                  004734b8   libf:core.obj
 0003:000054c0       __FFdevice_info            004734c0   libf:core.obj
 0003:00005520       __FFshare_tab              00473520   libf:core.obj
 0003:00005528       __FFmode_tab               00473528   libf:core.obj
 0003:00005530       __FFdefault_tab            00473530   libf:core.obj
 0003:00005798       _iostat                    00473798   libf:cio.obj
 0003:000057a0       __FFclStatus_tab           004737a0   libf:cls.obj
 0003:000057b0       _nIODepth                  004737b0   libf:cdescr.obj
 0003:000057b8       __FFopAccess_tab           004737b8   libf:opn.obj
 0003:000057d8       __FFopBlank_tab            004737d8   libf:opn.obj
 0003:000057e8       __FFopStatus_tab           004737e8   libf:opn.obj
 0003:00005810       __FFopForm_tab             00473810   libf:opn.obj
 0003:00005838       __FFopShare_tab            00473838   libf:opn.obj
 0003:00005868       __FFopMode_tab             00473868   libf:opn.obj
 0003:00005888       __FFtable_tab              00473888   libf:opn.obj
 0003:000058b0       __FFtypetable              004738b0   libf:opn.obj
 0003:00005ab0       __FFexcept                 00473ab0   libf:matherr.obj
 0003:00005cb8       __FFnextreci_handlers      00473cb8   libf:iodec2.obj
 0003:00005cc8       __FFnextreco_handlers      00473cc8   libf:iodec2.obj
 0003:00005cd8       __FFoutput_processors      00473cd8   libf:iodec2.obj
 0003:00005ce4       __FFinput_processors       00473ce4   libf:iodec2.obj
 0003:00005cf0       __FFnum_fetchers           00473cf0   libf:iodec2.obj
 0003:00005cf8       __FFchn_fetchers           00473cf8   libf:iodec2.obj
 0003:00005d00       __FFbyte_senders           00473d00   libf:iodec2.obj
 0003:00005d08       __FFunf_rtn_tab            00473d08   libf:iodec2.obj
 0003:00005d20       __FFflt_decoder            00473d20   libf:iodec2.obj
 0003:00005d24       __FFflt_encoder            00473d24   libf:iodec2.obj
 0003:00005d28       __FFhex_handler            00473d28   libf:iodec2.obj
 0003:00005d2c       __FFbin_handler            00473d2c   libf:iodec2.obj
 0003:00005d30       __FFoct_handler            00473d30   libf:iodec2.obj
 0003:00005d44       __FFdummy                  00473d44   libf:finit.obj
 0003:00005d48       __FFunit_lst               00473d48   libf:unit77.obj
 0003:00006060       _ulMaxVals                 00474060   libf:fstrtol.obj
 0003:000060f8       __FFerrnum                 004740f8   libf:build.obj
 0003:00006100       __FFermsg                  00474100   libf:build.obj
 0003:00006118       __FFDefMathErr             00474118   libf:mhandler.obj
 0003:00006148       _blanks                    00474148   libf:tab.obj
 0003:00006160       __FFerrors                 00474160   libf:errdic.obj
 0003:00006168       __FFer_index               00474168   libf:errdic.obj
 0003:00006c20       __FFer_buffer              00474c20   libf:errdic.obj
 0003:00007478       __FFtmap                   00475478   libf:errmap.obj
 0003:000077e8       _bIsNAMELIST               004757e8   libf:creadn.obj
 0003:000077f0       __fltused                  004757f0   libc:fpinit.obj
 0003:000077f4       __ldused                   004757f4   libc:fpinit.obj
 0003:000077f8       ___fastflag                004757f8   libc:fpinit.obj
 0003:000077fc       __adjust_fdiv              004757fc   libc:fpinit.obj
 0003:00007800       __FPinit                   00475800   libc:fpinit.obj
 0003:00007804       __FPmtinit                 00475804   libc:fpinit.obj
 0003:00007808       __FPmtterm                 00475808   libc:fpinit.obj
 0003:0000780c       __aenvptr                  0047580c   libc:crt0.obj
 0003:00007810       __wenvptr                  00475810   libc:crt0.obj
 0003:00007814       __aexit_rtn                00475814   libc:crt0.obj
 0003:00007818       ___error_mode              00475818   libc:crt0.obj
 0003:0000781c       ___app_type                0047581c   libc:crt0.obj
 0003:00007820       __OP_FMODjmptab            00475820   libc:87fmod.obj
 0003:00007870       ___itimeb                  00475870   libc:clock.obj
 0003:0000787c       _errno                     0047587c   libc:crt0dat.obj
 0003:00007880       __doserrno                 00475880   libc:crt0dat.obj
 0003:00007884       __umaskval                 00475884   libc:crt0dat.obj
 0003:00007888       __osver                    00475888   libc:crt0dat.obj
 0003:0000788c       __winver                   0047588c   libc:crt0dat.obj
 0003:00007890       __winmajor                 00475890   libc:crt0dat.obj
 0003:00007894       __winminor                 00475894   libc:crt0dat.obj
 0003:00007898       ___argc                    00475898   libc:crt0dat.obj
 0003:0000789c       ___argv                    0047589c   libc:crt0dat.obj
 0003:000078a0       ___wargv                   004758a0   libc:crt0dat.obj
 0003:000078a4       __environ                  004758a4   libc:crt0dat.obj
 0003:000078a8       ___initenv                 004758a8   libc:crt0dat.obj
 0003:000078ac       __wenviron                 004758ac   libc:crt0dat.obj
 0003:000078b0       ___winitenv                004758b0   libc:crt0dat.obj
 0003:000078b4       __pgmptr                   004758b4   libc:crt0dat.obj
 0003:000078b8       __wpgmptr                  004758b8   libc:crt0dat.obj
 0003:000078bc       __exitflag                 004758bc   libc:crt0dat.obj
 0003:000078c0       __C_Termination_Done       004758c0   libc:crt0dat.obj
 0003:000078c8       __iob                      004758c8   libc:_file.obj
 0003:00007b48       __cflush                   00475b48   libc:_file.obj
 0003:00007b4c       ??_C@_0P@GGKG@runtime?5error?5?$AA@ 00475b4c   libc:crt0msg.obj
 0003:00007b5c       ??_C@_02PIMC@?$AN?6?$AA@   00475b5c   libc:crt0msg.obj
 0003:00007b60       ??_C@_0O@DELO@TLOSS?5error?$AN?6?$AA@ 00475b60   libc:crt0msg.obj
 0003:00007b70       ??_C@_0N@OMLL@SING?5error?$AN?6?$AA@ 00475b70   libc:crt0msg.obj
 0003:00007b80       ??_C@_0P@OJAK@DOMAIN?5error?$AN?6?$AA@ 00475b80   libc:crt0msg.obj
 0003:00007b90       ??_C@_0DF@ECGN@R6027?$AN?6?9?5not?5enough?5space?5for?5lo@ 00475b90   libc:crt0msg.obj
 0003:00007bc8       ??_C@_0DF@FKAC@R6026?$AN?6?9?5not?5enough?5space?5for?5st@ 00475bc8   libc:crt0msg.obj
 0003:00007c00       ??_C@_0CG@DPMN@R6025?$AN?6?9?5pure?5virtual?5function?5c@ 00475c00   libc:crt0msg.obj
 0003:00007c28       ??_C@_0DF@CKIP@R6024?$AN?6?9?5not?5enough?5space?5for?5_o@ 00475c28   libc:crt0msg.obj
 0003:00007c60       ??_C@_0CJ@GGOE@R6019?$AN?6?9?5unable?5to?5open?5console?5@ 00475c60   libc:crt0msg.obj
 0003:00007c8c       ??_C@_0CB@LBOB@R6018?$AN?6?9?5unexpected?5heap?5error?$AN?6@ 00475c8c   libc:crt0msg.obj
 0003:00007cb0       ??_C@_0CN@FPEG@R6017?$AN?6?9?5unexpected?5multithread?5@ 00475cb0   libc:crt0msg.obj
 0003:00007ce0       ??_C@_0CM@OBIC@R6016?$AN?6?9?5not?5enough?5space?5for?5th@ 00475ce0   libc:crt0msg.obj
 0003:00007d0c       ??_C@_0CB@HPAL@?$AN?6abnormal?5program?5termination?$AN?6@ 00475d0c   libc:crt0msg.obj
 0003:00007d30       ??_C@_0CM@JOOB@R6009?$AN?6?9?5not?5enough?5space?5for?5en@ 00475d30   libc:crt0msg.obj
 0003:00007d5c       ??_C@_0CK@OIBL@R6008?$AN?6?9?5not?5enough?5space?5for?5ar@ 00475d5c   libc:crt0msg.obj
 0003:00007d88       ??_C@_0CF@LKPB@R6002?$AN?6?9?5floating?5point?5not?5load@ 00475d88   libc:crt0msg.obj
 0003:00007e38       __adbgmsg                  00475e38   libc:crt0msg.obj
 0003:00007e3c       ??_C@_0CF@JPDF@Microsoft?5Visual?5C?$CL?$CL?5Runtime?5Lib@ 00475e3c   libc:crt0msg.obj
 0003:00007e64       ??_C@_02JJJH@?6?6?$AA@     00475e64   libc:crt0msg.obj
 0003:00007e68       ??_C@_0BK@DEOK@Runtime?5Error?$CB?6?6Program?3?5?$AA@ 00475e68   libc:crt0msg.obj
 0003:00007e84       ??_C@_03NAME@?4?4?4?$AA@   00475e84   libc:crt0msg.obj
 0003:00007e88       ??_C@_0BH@NNCD@?$DMprogram?5name?5unknown?$DO?$AA@ 00475e88   libc:crt0msg.obj
 0003:00007ea0       __pctype                   00475ea0   libc:ctype.obj
 0003:00007ea4       __pwctype                  00475ea4   libc:ctype.obj
 0003:00007ea8       __ctype                    00475ea8   libc:ctype.obj
 0003:000080ac       ___mb_cur_max              004760ac   libc:nlsdata1.obj
 0003:000080b0       ___decimal_point           004760b0   libc:nlsdata1.obj
 0003:000080b4       ___decimal_point_length    004760b4   libc:nlsdata1.obj
 0003:000080d0       ??_C@_0BB@JPOE@GetCurrentThread?$AA@ 004760d0   libc:testfdiv.obj
 0003:000080e4       ??_C@_0BG@PMJE@SetThreadAffinityMask?$AA@ 004760e4   libc:testfdiv.obj
 0003:000080fc       ??_C@_0BC@CFOG@GetCurrentProcess?$AA@ 004760fc   libc:testfdiv.obj
 0003:00008110       ??_C@_0BH@KAJB@GetProcessAffinityMask?$AA@ 00476110   libc:testfdiv.obj
 0003:00008128       ??_C@_08OBID@KERNEL32?$AA@ 00476128   libc:testfdiv.obj
 0003:00008138       __cfltcvt_tab              00476138   libc:cmiscdat.obj
 0003:0000815c       ??_C@_05OFLO@e?$CL000?$AA@ 0047615c   libc:cvt.obj
 0003:00008164       __NLG_Destination          00476164   libc:exsup.obj
 0003:00008178       __XcptActTab               00476178   libc:winxfltr.obj
 0003:000081f0       __First_FPE_Indx           004761f0   libc:winxfltr.obj
 0003:000081f4       __Num_FPE                  004761f4   libc:winxfltr.obj
 0003:000081f8       __XcptActTabCount          004761f8   libc:winxfltr.obj
 0003:000081fc       __fpecode                  004761fc   libc:winxfltr.obj
 0003:00008200       __pxcptinfoptrs            00476200   libc:winxfltr.obj
 0003:00008210       __mbctype                  00476210   libc:mbctype.obj
 0003:00008314       ___mbcodepage              00476314   libc:mbctype.obj
 0003:00008318       ___mblcid                  00476318   libc:mbctype.obj
 0003:00008320       ___mbulinfo                00476320   libc:mbctype.obj
 0003:00008428       ___badioinfo               00476428   libc:ioinit.obj
 0003:00008430       __amblksiz                 00476430   libc:heapinit.obj
 0003:00008452       __OP_SINjmptab             00476452   libc:87trig.obj
 0003:00008472       __OP_COSjmptab             00476472   libc:87trig.obj
 0003:00008492       __OP_TANjmptab             00476492   libc:87trig.obj
 0003:000084c0       __OP_SQRTjmptab            004764c0   libc:87sqrt.obj
 0003:000084e0       __OP_ASINjmptab            004764e0   libc:87triga.obj
 0003:00008500       __OP_ACOSjmptab            00476500   libc:87triga.obj
 0003:00008520       __OP_ATANjmptab            00476520   libc:87triga.obj
 0003:00008540       __OP_ATAN2jmptab           00476540   libc:87triga.obj
 0003:00008590       __infinity                 00476590   libc:87tran.obj
 0003:0000859a       __minfinity                0047659a   libc:87tran.obj
 0003:000085a4       __logemax                  004765a4   libc:87tran.obj
 0003:000085d4       __OP_POWjmptab             004765d4   libc:87tran.obj
 0003:00008624       __OP_LOG10jmptab           00476624   libc:87tran.obj
 0003:00008644       __OP_LOGjmptab             00476644   libc:87tran.obj
 0003:00008664       __OP_EXPjmptab             00476664   libc:87tran.obj
 0003:0000869a       __OP_SINHjmptab            0047669a   libc:87trigh.obj
 0003:000086ba       __OP_COSHjmptab            004766ba   libc:87trigh.obj
 0003:000086da       __OP_TANHjmptab            004766da   libc:87trigh.obj
 0003:00008700       __indefinite               00476700   libc:87disp.obj
 0003:0000870a       __piby2                    0047670a   libc:87disp.obj
 0003:0000871c       __cpower                   0047671c   libc:87disp.obj
 0003:00008890       __newmode                  00476890   libc:_newmode.obj
 0003:00008894       ??_C@_0L@ODMK@new_p?5?$DN?$DN?50?$AA@ 00476894   libc:handler.obj
 0003:000088a0       ??_C@_0M@IHMC@handler?4cpp?$AA@ 004768a0   libc:handler.obj
 0003:000088b0       __stdbuf                   004768b0   libc:_sftbuf.obj
 0003:000088b8       ??_C@_1O@POHA@?$AA?$CI?$AAn?$AAu?$AAl?$AAl?$AA?$CJ?$AA?$AA?$AA?$AA?$AA?$AD?$AA?$AA?$AA?$AA?$AA?$AA?$<I?$ADi@ 004768b8   libc:output.obj
 0003:000088c8       ??_C@_06ONKE@?$CInull?$CJ?$AA@ 004768c8   libc:output.obj
 0003:000088d0       ___nullstring              004768d0   libc:output.obj
 0003:000088d4       ___wnullstring             004768d4   libc:output.obj
 0003:000088d8       ??_C@_06PAPI@1?$CDQNAN?$AA@ 004768d8   libc:x10fout.obj
 0003:000088e0       ??_C@_05BGNL@1?$CDINF?$AA@ 004768e0   libc:x10fout.obj
 0003:000088e8       ??_C@_05EDPF@1?$CDIND?$AA@ 004768e8   libc:x10fout.obj
 0003:000088f0       ??_C@_06LKFM@1?$CDSNAN?$AA@ 004768f0   libc:x10fout.obj
 0003:00008a60       __fmode                    00476a60   libc:txtmode.obj
 0003:00008a70       ??_C@_0BD@NJFP@GetLastActivePopup?$AA@ 00476a70   libc:crtmbox.obj
 0003:00008a84       ??_C@_0BA@GILI@GetActiveWindow?$AA@ 00476a84   libc:crtmbox.obj
 0003:00008a94       ??_C@_0M@PKCK@MessageBoxA?$AA@ 00476a94   libc:crtmbox.obj
 0003:00008aa0       ??_C@_0L@HKL@user32?4dll?$AA@ 00476aa0   libc:crtmbox.obj
 0003:00008ab0       ___lc_handle               00476ab0   libc:nlsdata2.obj
 0003:00008ac8       ___lc_codepage             00476ac8   libc:nlsdata2.obj
 0003:00008ad4       ??_C@_01A@?$AA?$AA@        00476ad4   libc:aw_map.obj
 0003:00008ad8       ??_C@_13A@?$AA?$AA?$AA?$AA?$AA?$AD?$AA?$AA@ 00476ad8   libc:aw_map.obj
 0003:00008b20       ??_C@_02JHIA@TZ?$AA@       00476b20   libc:tzset.obj
 0003:00008b28       __timezone                 00476b28   libc:timeset.obj
 0003:00008b2c       __daylight                 00476b2c   libc:timeset.obj
 0003:00008b50       __tzname                   00476b50   libc:timeset.obj
 0003:00008b58       __lpdays                   00476b58   libc:days.obj
 0003:00008b90       __days                     00476b90   libc:days.obj
 0003:00008bc4       ??_C@_01BJG@?6?$AA@        00476bc4   libc:assert.obj
 0003:00008bfc       ??_C@_0DN@MHHJ@?$CIPress?5Retry?5to?5debug?5the?5applic@ 00476bfc   libc:assert.obj
 0003:00008c3c       ??_C@_0HA@EJLJ@For?5information?5on?5how?5your?5prog@ 00476c3c   libc:assert.obj
 0003:00008cac       ??_C@_0N@NOAB@Expression?3?5?$AA@ 00476cac   libc:assert.obj
 0003:00008cbc       ??_C@_06JMOL@Line?3?5?$AA@ 00476cbc   libc:assert.obj
 0003:00008cc4       ??_C@_06FAAO@File?3?5?$AA@ 00476cc4   libc:assert.obj
 0003:00008ccc       ??_C@_09PIFG@Program?3?5?$AA@ 00476ccc   libc:assert.obj
 0003:00008cd8       ??_C@_0BC@OIMC@Assertion?5failed?$CB?$AA@ 00476cd8   libc:assert.obj
 0003:00008cec       ??_C@_03GAFO@_yn?$AA@      00476cec   libc:fpexcept.obj
 0003:00008cf0       ??_C@_03GNLD@_y1?$AA@      00476cf0   libc:fpexcept.obj
 0003:00008cf4       ??_C@_03MHCE@_y0?$AA@      00476cf4   libc:fpexcept.obj
 0003:00008cf8       ??_C@_05PAK@frexp?$AA@     00476cf8   libc:fpexcept.obj
 0003:00008d00       ??_C@_04JKCH@fmod?$AA@     00476d00   libc:fpexcept.obj
 0003:00008d08       ??_C@_06GGHF@_hypot?$AA@   00476d08   libc:fpexcept.obj
 0003:00008d10       ??_C@_05JNMC@_cabs?$AA@    00476d10   libc:fpexcept.obj
 0003:00008d18       ??_C@_05MEKH@ldexp?$AA@    00476d18   libc:fpexcept.obj
 0003:00008d20       ??_C@_04KAOJ@modf?$AA@     00476d20   libc:fpexcept.obj
 0003:00008d28       ??_C@_04EHAJ@fabs?$AA@     00476d28   libc:fpexcept.obj
 0003:00008d30       ??_C@_05MFBN@floor?$AA@    00476d30   libc:fpexcept.obj
 0003:00008d38       ??_C@_04JJMP@ceil?$AA@     00476d38   libc:fpexcept.obj
 0003:00008d40       ??_C@_03JLPI@tan?$AA@      00476d40   libc:fpexcept.obj
 0003:00008d44       ??_C@_03DLFL@cos?$AA@      00476d44   libc:fpexcept.obj
 0003:00008d48       ??_C@_03JAMN@sin?$AA@      00476d48   libc:fpexcept.obj
 0003:00008d4c       ??_C@_04LMBE@sqrt?$AA@     00476d4c   libc:fpexcept.obj
 0003:00008d54       ??_C@_05BFPO@atan2?$AA@    00476d54   libc:fpexcept.obj
 0003:00008d5c       ??_C@_04EAGN@atan?$AA@     00476d5c   libc:fpexcept.obj
 0003:00008d64       ??_C@_04OAMO@acos?$AA@     00476d64   libc:fpexcept.obj
 0003:00008d6c       ??_C@_04ELFI@asin?$AA@     00476d6c   libc:fpexcept.obj
 0003:00008d74       ??_C@_04LFAD@tanh?$AA@     00476d74   libc:fpexcept.obj
 0003:00008d7c       ??_C@_04PFKD@cosh?$AA@     00476d7c   libc:fpexcept.obj
 0003:00008d84       ??_C@_04NPAI@sinh?$AA@     00476d84   libc:fpexcept.obj
 0003:00008d8c       ??_C@_05IJHH@log10?$AA@    00476d8c   libc:fpexcept.obj
 0003:00008d94       ??_C@_03BGKD@log?$AA@      00476d94   libc:fpexcept.obj
 0003:00008d98       ??_C@_03EGFG@pow?$AA@      00476d98   libc:fpexcept.obj
 0003:00008d9c       ??_C@_03CDGJ@exp?$AA@      00476d9c   libc:fpexcept.obj
 0003:00008e98       __d_inf                    00476e98   libc:util.obj
 0003:00008ea0       __d_ind                    00476ea0   libc:util.obj
 0003:00008ea8       __d_max                    00476ea8   libc:util.obj
 0003:00008eb0       __d_min                    00476eb0   libc:util.obj
 0003:00008eb8       __d_mzero                  00476eb8   libc:util.obj
 0003:00008ee8       __pow10pos                 00476ee8   libc:constpow.obj
 0003:00009048       __pow10neg                 00477048   libc:constpow.obj
 0003:000091ac       __qw32used                 004771ac   console:console.obj
 0003:00eb6dac       ?_pnhHeap@@3P6AHI@ZA       01324dac   libc:handler.obj
 0003:00eb6db0       _PASSIT                    01324db0   <common>
 0003:00eb6fb0       _DEN                       01324fb0   <common>
 0003:00eb7000       _DTK                       01325000   <common>
 0003:00eb7030       _DOV                       01325030   <common>
 0003:00eb7060       _TNOVER                    01325060   <common>
 0003:00eb7070       _OVER                      01325070   <common>
 0003:00eb73a0       _DER                       013253a0   <common>
 0003:00eb73d0       _DOVN                      013253d0   <common>
 0003:00eb7400       _MIN                       01325400   <common>
 0003:00eb7410       _EIGMAT                    01325410   <common>
 0003:0128abf0       _VALUE                     016f8bf0   <common>
 0003:0128ac00       _T1                        016f8c00   <common>
 0003:01477ef8       _FINALGRAD                 018e5ef8   <common>
 0003:01477f00       _ERCOM8                    018e5f00   <common>
 0003:01477fb0       _ERCOM9                    018e5fb0   <common>
 0003:014780f0       _DU16NF                    018e60f0   <common>
 0003:01478130       _ERCOM1                    018e6130   <common>
 0003:01478420       _ERCOM2                    018e6420   <common>
 0003:01478fb0       _ERCOM3                    018e6fb0   <common>
 0003:01478fc0       _ERCOM4                    018e6fc0   <common>
 0003:0147908c       _gnControl                 018e708c   <common>
 0003:01479090       _GotTokenThruENCheck       018e7090   <common>
 0003:01479094       _nNumVVFArgs               018e7094   <common>
 0003:014790a0       _nVVFValues                018e70a0   <common>
 0003:0147afe0       _InfoSave                  018e8fe0   <common>
 0003:0147b170       _f90_argc                  018e9170   <common>
 0003:0147b174       _f90_argv                  018e9174   <common>
 0003:0147b178       __FFfirst                  018e9178   <common>
 0003:0147b180       _GlobalMTDesc              018e9180   <common>
 0003:0147b190       _nStartOfLogicalRecord     018e9190   <common>
 0003:0147b194       _bIsFirstEd                018e9194   <common>
 0003:0147b1a0       __FFOpenLock               018e91a0   <common>
 0003:0147b1b8       _IOGlobalDesc              018e91b8   <common>
 0003:0147b1bc       _IOGlobalFormat            018e91bc   <common>
 0003:0147b1c0       _fNewRead                  018e91c0   <common>
 0003:0147b1c4       _IOGlobalFileStatus        018e91c4   <common>
 0003:0147b1c8       _IOGlobalDescOffset        018e91c8   <common>
 0003:0147b1cc       _FirstGlobalNode           018e91cc   <common>
 0003:0147b1d0       _IOCurDescSize             018e91d0   <common>
 0003:0147b1d4       _CurrentNode               018e91d4   <common>
 0003:0147b1d8       _fNewWrite                 018e91d8   <common>
 0003:0147b1dc       _IOGlobalWriteLength       018e91dc   <common>
 0003:0147b1e0       __matherr_flag             018e91e0   <common>
 0003:0147b1e4       __crtheap                  018e91e4   <common>
 0003:0147b1e8       __nhandle                  018e91e8   <common>
 0003:0147b1f0       ___pioinfo                 018e91f0   <common>
 0003:0147b2f0       __setjmpexused             018e92f0   <common>
 0003:0147b2f4       __nstream                  018e92f4   <common>
 0003:0147b2f8       ___piob                    018e92f8   <common>
 0003:0147b300       __bufin                    018e9300   <common>
 0003:0147c300       ___onexitend               018ea300   <common>
 0003:0147c304       ___onexitbegin             018ea304   <common>
 0003:0147c308       __acmdln                   018ea308   <common>
 0004:00000000       __IMPORT_DESCRIPTOR_ADVAPI32 018eb000   advapi32:ADVAPI32.dll
 0004:00000014       __IMPORT_DESCRIPTOR_KERNEL32 018eb014   kernel32:KERNEL32.dll
 0004:00000028       __NULL_IMPORT_DESCRIPTOR   018eb028   advapi32:ADVAPI32.dll
 0004:00000124       __imp__LookupPrivilegeValueA@12 018eb124   advapi32:ADVAPI32.dll
 0004:00000128       __imp__OpenProcessToken@12 018eb128   advapi32:ADVAPI32.dll
 0004:0000012c       __imp__AdjustTokenPrivileges@24 018eb12c   advapi32:ADVAPI32.dll
 0004:00000130       \177ADVAPI32_NULL_THUNK_DATA 018eb130   advapi32:ADVAPI32.dll
 0004:00000134       __imp__GetLocalTime@4      018eb134   kernel32:KERNEL32.dll
 0004:00000138       __imp__SetLocalTime@4      018eb138   kernel32:KERNEL32.dll
 0004:0000013c       __imp__GetCommandLineA@0   018eb13c   kernel32:KERNEL32.dll
 0004:00000140       __imp__GetCurrentProcess@0 018eb140   kernel32:KERNEL32.dll
 0004:00000144       __imp__GetACP@0            018eb144   kernel32:KERNEL32.dll
 0004:00000148       __imp__GetVersion@0        018eb148   kernel32:KERNEL32.dll
 0004:0000014c       __imp__SetHandleCount@4    018eb14c   kernel32:KERNEL32.dll
 0004:00000150       __imp__GetFileInformationByHandle@8 018eb150   kernel32:KERNEL32.dll
 0004:00000154       __imp__CloseHandle@4       018eb154   kernel32:KERNEL32.dll
 0004:00000158       __imp__CreateFileA@28      018eb158   kernel32:KERNEL32.dll
 0004:0000015c       __imp__ExitProcess@4       018eb15c   kernel32:KERNEL32.dll
 0004:00000160       __imp__HeapAlloc@12        018eb160   kernel32:KERNEL32.dll
 0004:00000164       __imp__HeapFree@12         018eb164   kernel32:KERNEL32.dll
 0004:00000168       __imp__HeapReAlloc@16      018eb168   kernel32:KERNEL32.dll
 0004:0000016c       __imp__GetLastError@0      018eb16c   kernel32:KERNEL32.dll
 0004:00000170       __imp__GetFileType@4       018eb170   kernel32:KERNEL32.dll
 0004:00000174       __imp__WriteFile@20        018eb174   kernel32:KERNEL32.dll
 0004:00000178       __imp__GetStdHandle@4      018eb178   kernel32:KERNEL32.dll
 0004:0000017c       __imp__GetModuleFileNameA@12 018eb17c   kernel32:KERNEL32.dll
 0004:00000180       __imp__SetFilePointer@16   018eb180   kernel32:KERNEL32.dll
 0004:00000184       __imp__SetStdHandle@8      018eb184   kernel32:KERNEL32.dll
 0004:00000188       __imp__DeleteFileA@4       018eb188   kernel32:KERNEL32.dll
 0004:0000018c       __imp__GetFileAttributesA@4 018eb18c   kernel32:KERNEL32.dll
 0004:00000190       __imp__SetConsoleCtrlHandler@8 018eb190   kernel32:KERNEL32.dll
 0004:00000194       __imp__SetEndOfFile@4      018eb194   kernel32:KERNEL32.dll
 0004:00000198       __imp__ReadFile@20         018eb198   kernel32:KERNEL32.dll
 0004:0000019c       __imp__GetProcAddress@8    018eb19c   kernel32:KERNEL32.dll
 0004:000001a0       __imp__LoadLibraryA@4      018eb1a0   kernel32:KERNEL32.dll
 0004:000001a4       __imp__RtlUnwind@16        018eb1a4   kernel32:KERNEL32.dll
 0004:000001a8       __imp__UnhandledExceptionFilter@4 018eb1a8   kernel32:KERNEL32.dll
 0004:000001ac       __imp__FreeEnvironmentStringsA@4 018eb1ac   kernel32:KERNEL32.dll
 0004:000001b0       __imp__MultiByteToWideChar@24 018eb1b0   kernel32:KERNEL32.dll
 0004:000001b4       __imp__GetEnvironmentStrings@0 018eb1b4   kernel32:KERNEL32.dll
 0004:000001b8       __imp__FreeEnvironmentStringsW@4 018eb1b8   kernel32:KERNEL32.dll
 0004:000001bc       __imp__GetEnvironmentStringsW@0 018eb1bc   kernel32:KERNEL32.dll
 0004:000001c0       __imp__WideCharToMultiByte@32 018eb1c0   kernel32:KERNEL32.dll
 0004:000001c4       __imp__GetCPInfo@8         018eb1c4   kernel32:KERNEL32.dll
 0004:000001c8       __imp__GetOEMCP@0          018eb1c8   kernel32:KERNEL32.dll
 0004:000001cc       __imp__GetStartupInfoA@4   018eb1cc   kernel32:KERNEL32.dll
 0004:000001d0       __imp__HeapCreate@12       018eb1d0   kernel32:KERNEL32.dll
 0004:000001d4       __imp__HeapDestroy@4       018eb1d4   kernel32:KERNEL32.dll
 0004:000001d8       __imp__HeapSize@12         018eb1d8   kernel32:KERNEL32.dll
 0004:000001dc       __imp__LCMapStringA@24     018eb1dc   kernel32:KERNEL32.dll
 0004:000001e0       __imp__LCMapStringW@24     018eb1e0   kernel32:KERNEL32.dll
 0004:000001e4       __imp__GetStringTypeA@20   018eb1e4   kernel32:KERNEL32.dll
 0004:000001e8       __imp__GetStringTypeW@16   018eb1e8   kernel32:KERNEL32.dll
 0004:000001ec       __imp__GetCurrentProcessId@0 018eb1ec   kernel32:KERNEL32.dll
 0004:000001f0       __imp__GetTimeZoneInformation@4 018eb1f0   kernel32:KERNEL32.dll
 0004:000001f4       __imp__FlushFileBuffers@4  018eb1f4   kernel32:KERNEL32.dll
 0004:000001f8       __imp__RaiseException@16   018eb1f8   kernel32:KERNEL32.dll
 0004:000001fc       __imp__CompareStringA@24   018eb1fc   kernel32:KERNEL32.dll
 0004:00000200       __imp__CompareStringW@24   018eb200   kernel32:KERNEL32.dll
 0004:00000204       __imp__SetEnvironmentVariableA@8 018eb204   kernel32:KERNEL32.dll
 0004:00000208       \177KERNEL32_NULL_THUNK_DATA 018eb208   kernel32:KERNEL32.dll

 entry point at        0001:0005ee40

 Static symbols

 0001:0005db30       _read_namelist             0045eb30 f libf:creadn.obj
 0001:0005de80       _process_name_value        0045ee80 f libf:creadn.obj
 0001:0005e200       _makedope                  0045f200 f libf:creadn.obj
 0001:0005e300       _apply_section             0045f300 f libf:creadn.obj
 0001:0005e380       _process_dims              0045f380 f libf:creadn.obj
 0001:0005e4f0       _get_integer               0045f4f0 f libf:creadn.obj
 0001:0005e5f0       _process_ssspec            0045f5f0 f libf:creadn.obj
 0001:0005e660       _process_percent           0045f660 f libf:creadn.obj
 0001:0005e800       _process_value             0045f800 f libf:creadn.obj
 0001:0005e8a0       _read_values               0045f8a0 f libf:creadn.obj
 0001:0005eae0       _lread_value               0045fae0 f libf:creadn.obj
 0001:0006b020       _findenv                   0046c020 f libc:setenv.obj
 0001:0006b080       _copy_environ              0046c080 f libc:setenv.obj
 0001:0006aa70       _wcsncnt                   0046ba70 f libc:aw_cmp.obj
 0001:0006ada0       _strncnt                   0046bda0 f libc:aw_cmp.obj
 0001:000695c0       __get_fname                0046a5c0 f libc:fpexcept.obj
 0001:00067c90       __make_time_t              00468c90 f libc:mktime.obj
 0001:00067310       __abstract_cw              00468310 f libc:ieee87.obj
 0001:000673c0       __hw_cw                    004683c0 f libc:ieee87.obj
 0001:00067450       __abstract_sw              00468450 f libc:ieee87.obj
 0001:00065ce0       _wcsncnt                   00466ce0 f libc:aw_map.obj
 0001:00065f50       _strncnt                   00466f50 f libc:aw_map.obj
 0001:00065590       _flsall                    00466590 f libc:fflush.obj
 0001:00065150       _write_char                00466150 f libc:output.obj
 0001:000651a0       _write_multi_char          004661a0 f libc:output.obj
 0001:000651e0       _write_string              004661e0 f libc:output.obj
 0001:00065220       _get_int_arg               00466220 f libc:output.obj
 0001:00065230       _get_int64_arg             00466230 f libc:output.obj
 0001:00065250       _get_short_arg             00466250 f libc:output.obj
 0001:00062a90       _getSystemCP               00463a90 f libc:mbctype.obj
 0001:00062ae0       _CPtoLCID                  00463ae0 f libc:mbctype.obj
 0001:00062b40       _setSBCS                   00463b40 f libc:mbctype.obj
 0001:00062330       _parse_cmdline             00463330 f libc:stdargv.obj
 0001:00062180       _xcptlookup                00463180 f libc:winxfltr.obj
 0001:00061f4c       __unwind_handler           00462f4c f libc:exsup.obj
 0001:00061e30       __cftoe_g                  00462e30 f libc:cvt.obj
 0001:00061e60       __cftof_g                  00462e60 f libc:cvt.obj
 0001:00061f00       __shift                    00462f00 f libc:cvt.obj
 0001:00061000       _ctrlevent_capture@4       00462000 f libc:winsig.obj
 0001:000611e0       _siglookup                 004621e0 f libc:winsig.obj
 0001:0005f3e0       _doexit                    004603e0 f libc:crt0dat.obj
 0001:0005f460       __initterm                 00460460 f libc:crt0dat.obj
 0001:0005f070       _xtoa                      00460070 f libc:xtoa.obj

FIXUPS: 60176 a ffffffc6 18 fffffeee 15 93 1f fffffd85 c 5 10 19 8 5 5
FIXUPS: 5ff00 9 19 10 28 a fffffe2d 5 a a11 10 fffffec0 11 37 ffffff13
FIXUPS: 6060f 11 fffffd46 12 12 20 1d 10 5e 12 fffffec2 3d ffffff9f ffffff81
FIXUPS: 60270 14 ffffffb2 18 ffffff98 a 18 a ffffff84 18 a 18 cd2 2c 51
FIXUPS: 60f3f 22 15 e 1a e fffffb6b 21 13 4b 20 13 fffffdf5 20 ffffff6b
FIXUPS: 6095e c ffffff18 1f 13 6d e fffffedf f e ffffffa8 a a ffffffb1
FIXUPS: 61d4a fffffee3 19 61 ffffff46 fffffedd 73 fffffd86 11e fffffde3
FIXUPS: 617d0 d 20 d ffffff3e ffffffc8 16 fffffd2e 21a 23 2e fffffd0e a
FIXUPS: 612d8 4a fffffd2b 18 e4 bd fffff9fc 213 5f 2003 3c 1d 1d 34 fffff9c7
FIXUPS: 629bd fffffebe ffffff4a 33 ffffff12 ffffff40 73 fffffda8 11e fffffca3
FIXUPS: 62266 19 33 1c 2c 10 9 36 fffffb9b 1aa 4a fffffcc8 29 ffffff3f
FIXUPS: 61d19 24 19b8 d8 25 68 fffffa74 14 10 1c fffffed9 15 2e 10 3c fffffdb2
FIXUPS: 62f40 fffffacb 21 d9 22 50 15 33 10d 28 20 18 2e 37 36 48 15 28
FIXUPS: 6433b b2 15 fffffdb6 1f 7 10 ffffff59 fffffdb5 3d 49 132 31 fffffdf2
FIXUPS: 63e33 d 11 2f 25 fffffcf8 10 94 13d fffffb3f 20 b2 77 6a 113 fffffa24
FIXUPS: 63659 6d 2902 1f 24 28 144 48 46 fffff486 4f 5a 2c fffffed4 a ffffff17
FIXUPS: 655de fffffed6 69 ffffef63 d f 5 5 c d 26 fffffd5b 12 1d 5 55 3c
FIXUPS: 6430c 21e8 4b 44 35 19 fffffe9f 1c ffffff91 fffffee1 2f 38 fffff51d
FIXUPS: 658d5 aa 29 81 e 73 4e 26 76 81 3e 16 1d 13 db 1c 113 b2 1f 2c
FIXUPS: 67066 40 5f 13 9 f5 3c fffff8f4 85 56 44 2a 9 2d 9 c8 85 82 9 17
FIXUPS: 66f34 9 fffff8cb 1d 6d 1e 33 d 12 d fffffbbd b 1d38 14 fffff337
FIXUPS: 67575 77 12 197 1c 20 15 20 22 e 11 14 18 19 28 6c 20 4f 6c 12
FIXUPS: 67a3b 12 2e 12 fffff943 d 2c 47 1f 14db 28 e9 14 47 15 31 2e 43
FIXUPS: 68803 cb 1c 2b fffffc94 5f 12 18 f fffffe52 fffffdbb 21 20 19 28
FIXUPS: 682ea fffff955 bf 87 119 4d d4 5a 16ee 1a 1b d9 b e 9 26 42 fffffdca
FIXUPS: 695f4 b c 1b fffff9f7 d5 c1 c9 124 11 a 1a 23 1e d 8 fffff84d 10
FIXUPS: 68e77 13 28 f e54 2e f 34 f 15 2b 4c f 40 f 15 13e 15a 119 21 26
FIXUPS: 6a3fa b1 1f 20 52 d d 1b d fffff683 fffffde1 50 47 160 fffffb19
FIXUPS: 6b02f fffffeee 48 51 fffffa0a 1f 23 32 13 1e 35 1c 21 28 95 37
FIXUPS: 6ace2 18 2f 3e 18 2f 13 28 83 fffff92a 166 27 fffff343 1d 50 1d
FIXUPS: 6b7d0 29 ffffff8d fffffd6a 27 3e 14 29 1f 21 45 28 25 2d 36 25
FIXUPS: 6b719 19 12 fffffd71 ffffff27 9 35 ffffff4f 15 c fffffe3d 24 18
FIXUPS: 6b220 1a fffffd9e 11c9 c ffffff6a fffffcd3 3c 2a 36 34 39 20 21
FIXUPS: 6bf65 46 4d 44 73 12 18 fffff7d8 18 91 63 4d 9 17 9 c2 50 192 58
FIXUPS: 6bd7d d fffe26b4 25 23 2e 23 17 25 23 2e 23 17 fffff57a 20 20 20
FIXUPS: 4db97 10 16 1b 2d 16 27 9 12 9 16 9 fffffdfa 1a 1e 1d 1e6c5 fffe1e4e
FIXUPS: 4dffe 25 23 2e 23 17 23 27 21 1c 27 d 28 23 2c 23 17 27 23 2c 23
FIXUPS: 4e2ca 2c 25 31 25 17 2b 23 2e 23 9c1 23 24 2c ffffee3f 13 1b 20
FIXUPS: 4dd09 20 22 2a 13 1f 10 15 9 17 9 1e 23 2e 23 17 25 23 2e 23 17
FIXUPS: 4df73 23 2e a91 1f 19 1a 1f 1d 19 1f 19 20 1b 1d 19 19 20 21 1b
FIXUPS: 4ec39 19 1a 21 1f 1f 1f 16 1a 1f 22 1f 1f 1f 16 fffff7eb 3d ae
FIXUPS: 4e6c6 1f 1f 1f 16 1a 21 2f 19 1f 19 20 1b 19 1f 16 2a 33 1f 1f
FIXUPS: 4e92e 1a 3c 29 1b 19 16 20 1f 10e5 19 1f 16 3b 25 38 fffff52a 124
FIXUPS: 4f26f 20 30 20 36 6b 19 22 12 23 1d 3c fffffa6f 10 41 13 10 15
FIXUPS: 4ef79 7c a2 17 5 5fc 10 28 3e 53 16 c8 1e 16 5a 19 1d 1c 14 20
FIXUPS: 4f980 3c 21 11 c 26 27 10 c 24 27 10 8 12 12 15 10 d51 35 c8 35
FIXUPS: 509c1 51 18 29 35 29 17 19 ffffe99c 1b 1b 1b 1b 1e 1b 1b 1b 1b
FIXUPS: 4f58e 1b 1b 2d 1e 1e 18 15 1b 16 9cc 62 15 3b 40 40 40 40 40 40
FIXUPS: 502c9 40 40 3f 22 40 83 61 30 19 16 6d 30 27 2c 1b 94 28 9b 28
FIXUPS: 507ed 39 650 3e 22 14 39 20 fffffcf1 22 ffffff6b 20 f 9 18 fffff043
FIXUPS: 4fc69 59 15 5b 15 5d 15 59 15 5d 15 59 15 5b 15 5b 15 5b 1611 23
FIXUPS: 5168d 29 23 2a 23 17 29 25 31 25 17 fffff7de e 6b 17 fffffefb 13
FIXUPS: 50f80 10 a fffffd1c 24 4c 24 1b 2e 1b 45 1b 46 38f 23 2e 23 17
FIXUPS: 51293 23 2e 23 17 25 23 2e 23 17 23 23 2c 23 17 27 23 2c 23 17
FIXUPS: 51559 23 2a 23 17 26 23 1001 31 76 8d 7a 46 8 12 8 3e 8 ffffefb5
FIXUPS: 5187d 13 10 15 1a f 3f cc b9 17 fffff5ca 23 2e 23 17 25 23 2e 23
FIXUPS: 511be be0 2b 11 2b 14 3e 55 31 5d 6 11 c 28 14 6a 32 5d c 47 24
FIXUPS: 5214c 16 a4 20 1f 30 30 30 30 30 16b 90 d26 44 9 5 3e fffff942
FIXUPS: 52c79 1c f 1c 37 4c e fffffe39 1e 12 8 5 13 19 8 5 ffffef1d 24
FIXUPS: 51b9d 98 29 12 6d 56 c 4c 199d 17 18 57 2e 15b 39 fffffb63 ffffff06
FIXUPS: 533ed 29 ffffff87 fffff9f9 2f 91 2f 2f 2f 2f 2f 41 38 2e 2f b5
FIXUPS: 530df 10 14 c1 f 3e f 29f9 6e 26 2e 49 3c 1d 3d 1d 12 1c 10 13
FIXUPS: 55e7b 2d 6 aa 2a 24 e 2a ffffdc27 1b2 134 fffffcab fffffe4c ae
FIXUPS: 53aaf 54 fffffa46 32 188 1e31 175 39 1f 34 52 4a 89 39 c 12 c 70
FIXUPS: 55952 a6 a 29 46 1f 6 1d 1e 1d 53 48 c 9 2b 10 10 10 10 fffff204
FIXUPS: 54e19 4f 1b 16 24 63 30 49 44 10 2a 16 23 4b 4d b 18 7f 1cb 9 15
FIXUPS: 55389 c 18 4e 17 27 33 4d 2c 15 fffff064 17c 1a 1a 1a 1a 1a 3a
FIXUPS: 5479b 58 1b 67 42 17 32 f a 15 1f 14 10 a f b 1b7 12 d6 1f 87 56
FIXUPS: 54d84 5b fffff323 61 11 14 17 24 f 31 d 9 26 2d a6 19 19 a 10 1f
FIXUPS: 54387 10 e 11 7f d 13 26 7b 10 1f a 10 e 1f04 80 a0 60 56 15 60
FIXUPS: 567dc a5 82 1b 65 73 2f 50 d 5e f6 fffff52c 2f 9 43 12 44 fffffe6d
FIXUPS: 56066 ffffdf77 30 3d 13 3d 53 2dde 1b e 66 14 85 19 2b 1f 71 24
FIXUPS: 57104 f b6 47 fffffa8a 20 19 19 10 54 50 1b 39 1d fffffe45 fffff5bd
FIXUPS: 56231 51 9f 60 60 1e2a 1a 46 91 1e ffffef96 8 1a 2e f 22 39 1f
FIXUPS: 5739a 12 8 12 36 3f 72 17b 8 e a a1 10 13 12b 53 1e fffff5cb 3e
FIXUPS: 57c4d 4e a 17 2a 1c 37 33 54 20 82 20 3d 24 78 1c 22 18 58 12 a
FIXUPS: 58054 a 16 4a 2a 63 29 4c d 10 29 e9d 103 e 1c 16 fffff45c 31 27
FIXUPS: 586b6 23 15 18 fffffdd5 27 34 1d 76 45 fffff362 ba 1a d 4c 12 32
FIXUPS: 57b09 17 5 81 40 a 33 2067 10 10 10 10 fffff86d b 1d 31 28 78 14
FIXUPS: 59394 29 6 28 23 6d fffffe99 20 fffffedb 17 24 15 fffff591 35 42
FIXUPS: 588f6 73 1f 348 d 14e2 23 36 98 85 1b 4c 74 30 34 41 33 f fffff9eb
FIXUPS: 59f69 99 fffff90e 1e6 70 54 10 10 10 10 10 10 10 10 10 10 10 10
FIXUPS: 5aa9d 23 8 15 69 37 21 f 21 f 2e 9 6 fffffdd1 1d 29 11 fffffbc5
FIXUPS: 5a61a 97 8 20 ab 34 28 30 33 1f 16 fffffcdd c 15 1234 ffffff51
FIXUPS: 5b682 fffffcfd 95 11 25 1a 23 41 5e 1c 24 33 39 fffffce4 24 fffffc33
FIXUPS: 5b0dc e e fffffc81 fffffee0 11 29 19 30 15 19 fffffd55 f 19 114f
FIXUPS: 5bc02 25 d2 15 10 14 16 14 15 17 13 19 25 46 59 6 2d 2a 31 20 17
FIXUPS: 5bfcc 22 29 66 1a fffff7a2 5b 30 2b fffffea7 16db fffff9ff 88 74
FIXUPS: 5c0de 1f 52 3b 6e 92 13 f 25 70 53 3a 1d 7e 5b 3f 35 de 33 25 19
FIXUPS: 5c6c5 25 fffff30e 43 2c 5e 4c 1aac fffffcbf 7f 2b 3f 17 20 c fffffdc3
FIXUPS: 5d1f2 13 3a fffffd76 39 74 46 82 15 fffffd9c 6d 29 fffffb7f 8b
FIXUPS: 5cbb2 2c 30 b8 29 25 17 68 90 1b64 fffff8d3 3b 30 4a dd e 16 185
FIXUPS: 5e59b 35 23 10 d 98 19 fffff4f9 2e7 32d fffff4f6 29 19 15 27 fffffe99
FIXUPS: 5d64a 3f fffffd8d 79 fd 14 d 20c9 39 24 1e 2f f3 21 33 172 f2 39
FIXUPS: 5fb26 22 22 22 22 22 22 22 26 77 2f 17 13 39 ffffed11 17 1a ffffff98
FIXUPS: 5e754 1e 1a1 49d 4f 36 77 24 20 2f a8 5a 2a 25 25 20 33 1a 35 73
FIXUPS: 5f1c0 14 4a 77 12b 2c 24 ab 50 35 27 2b 2c 47 1e cf32 30 10 10
FIXUPS: 6c5c5 10 10 10 10 10 10 10 20 10 10 10 10 10 ffff2413 23 1c 11
FIXUPS: 5eb1a a 1c 30 4d 39 32 7b 48 98 fffe5679 1d 26 43 35 13 26 3b 11
FIXUPS: 44553 fffffd4e 4f 3f 2b fffffdd2 1d 26 43 35 13 26 36 11 17 28207
FIXUPS: 6c4a5 20 20 30 10 10 10 fffd8e72 2a fffff6c4 14 41 26 9 3c fffffc03
FIXUPS: 4479d 1c 26 9 34 20 30 26 9 b7 cb 13 fffffc64 14 33 2d 4d fffffe17
FIXUPS: 44588 26 2f 8f c e64 1c 26 2f 94 c fffffe70 25 26 c fffff707 a9
FIXUPS: 44c69 9 8f 52 64 b6 2f 87 7e 45 1b 21 2e 45 76 31 44 9e 12d 32
FIXUPS: 46541 67 65 fffffa97 13c 2a fffff5d5 21 3f 12 11f 19 65 21 4c 68
FIXUPS: 45ad5 4a 2c 2b 1b 83 44 226 66 12 6c 30 30 4a 30 43 133f 39 24
FIXUPS: 47459 30 3b 24 1e 3e 24 30 3c 24 66 4f 1b 17 17 17 18 1d 86 29
FIXUPS: 46741 d5 7f fffffdfa fffffc58 be 89 4a 65 481 83 76 39 7c ac b4
FIXUPS: 46cd9 a9 45 2d 67 97 12 1b 1d 19 19 18 23 40 43 65 69 69 7c 34
FIXUPS: 47272 34 23 81 23 c9e 40 20 27 56 40 23 fffffddb e 37 fffff9ed
FIXUPS: 479de 44 62 62 72 7b 21 1f 3c 5d 3a 89 3c fffffb92 ffffff85 ffffff41
FIXUPS: 47817 5c 3e fffff04a 33 205b 18 26 fffffe6e 81 5 9 fffff97b 21
FIXUPS: 4829f 12 11e 19 4d 1b 28 1e 72 12 46 25 27 17 8b 54 e 65 25 28
FIXUPS: 487a9 30 43 1245 53 29 1b fffff4c7 5 12a 29 d2 2f 29 33 cc c fffff800
FIXUPS: 48bcb 1e 21 9d 30 99 d9 69 33 49 66 fffffb1c fffffe57 17 27 16
FIXUPS: 48971 b26 35 37 18 18 2a 18 2e 18 2e 18 3a 12 17 46 17 26 3f 17
FIXUPS: 49763 57 17 26 61 17 26 4a 17 26 b2 53 17 44b 22 26 18 26 12 1a
FIXUPS: 49fd6 19 25 19 5a fffffa98 1d 26 81 22 26 18 26 12 1a a1 19 51
FIXUPS: 49371 18 2c 18 22 57 26 11b8 2d c 18 6d 19 45 d5 2d c 18 66 19
FIXUPS: 4a916 1f2 2d c 18 8b 1f 31 d6 2d 8a 276 fffff30e 79 5 9 fffff9f2
FIXUPS: 49ddb 26 1833 32 61 5b 45 4d 68 83 49 29 50 13 43 51 fffffa50 ffffffda
FIXUPS: 4b325 6d 23 15 9 fffffeca 39 ffffff29 12 1d fffffed4 b8 fffff268
FIXUPS: 4a479 4a 4f 1bea c 1d 33 24 31 1df 2d c 1d 5c 24 31 d6 2d 8a 267
FIXUPS: 4bc82 31 15 a 15 fffffdd2 18 83 34 6c fffff8e0 17 60 61 36 1b7f
FIXUPS: 4d192 35 34 fffffdc4 17 14 1a 2c 28 3d 44 12 fffffca9 4b 66 44
FIXUPS: 4ceeb 34 66 ffffed8d 57 4a 4f fb 2d c 1d 3e 24 45 d5 fffb5bf9 15
FIXUPS: 1cf8 15 1b 15 1b 15 1b 15 1b 15 8 16 3b f 8 19 8 15 10 4b858 ffffff3b
FIXUPS: 4d23f 31 34 36 31 34 34 34 fffffd89 fffb48d6 1b 15 1b 15 1b 15
FIXUPS: 1ab1 15 1b 15 8 16 3b f 8 19 f 16 f 17 8 19 8 2b 14 8 15 f 8 39
FIXUPS: 1cad fffff9ba 19 42 e 31 12 58 e 2b 19 42 f 16 f 17 8 19 f 17 f
FIXUPS: 18b7 8 66 1f 14 8 15 f 8 3c e 1b fffff88b 9 12 78 14 12 12 19 2a
FIXUPS: 139e 12 12 19 1b 12 23 14 19 ae 33 12 12 12 19 2c 12 12 12 19 1b
FIXUPS: 1630 25 37c1 16 16 16 8 10 ffffd039 6d 17 21 17 17 17 8 d fffff065
FIXUPS: 1085 14 30 e 12 34 10 12 34 10 12 34 10 12 2c 53 33d9 19 4f 19
FIXUPS: 46f2 19 10c 19 206 99 19 77 19 61 19 61 19 92 f 8 1c f 8 1c 10
FIXUPS: 4d8a 16 16 16 8 1c 10 ffffe864 79 196 128 18 68 18 bf 18 bf 18
FIXUPS: 3dec 18 49 18 4b 18 28 18 41 18 3f 18 171 18 57 18 10f 18 287 19
FIXUPS: 461e ffffe4aa 13 18 49 18 67 18 95 287 18 61 18 61 1d9 18 6b 18
FIXUPS: 32ba 18 117 18 64 18 a5 18 27 1a 13 18 39 18 55 ffffeab8 110 18
FIXUPS: 2269 18 3d 18 85 18 32 18 25 24 18 94 19 2b 19 23 24 18 a9 ad 9f
FIXUPS: 277b 97 18 8c 18 1a1 18 27 405a 27 29 4b 1e 36 16 18 1e 4d 18 c0
FIXUPS: 6dc7 12 18 22 12 16 8e 12 16 c 12 18 2a 12 16 88 ffffafd2 81 11
FIXUPS: 20f3 4552 2f 26 37 12 e 12 66 3c 30 62 38 12 1a 2e 33 a 12 26 12
FIXUPS: 6981 e 1f a 12 2e 12 80 c 20 c 3a fffff40c 179 7c 2d 46 51 12 21
FIXUPS: 6217 21 31 e 12 e 12 21 23 21 48 12 9a 12 4d 49 57 12 20 20 2d
FIXUPS: 65cf 2d 37 fffff28e 8c 37 27 12 c 12 18 12 5e 12 24 31 12 2f 12
FIXUPS: 5b50 18 24 46 68 14 52 14 b2 30 26 30 37 12 52 75 fffff488 2c 12
FIXUPS: 53d8 d3 12 18 12 1b 41 1d 3c 12 19 12 1b 4b 37 72 14 1f 63 36 4d
FIXUPS: 5813 10 12 12 1f 21 12 16 2b32 e e 11 8 e e 4c 38 ffffc9e7 86 1e
FIXUPS: 4fb4 12 16 7f 12 16 25 34 12 16 c2 47 24 2d 12 16 8e 12 16 36 2a44
FIXUPS: 7dcf 10 2f 30 52 21 33 12 21 31 5e 32 36 38 37 32 3a 38 30 23 62
FIXUPS: 81e2 13 b 21 2b 36 38 b5 e 5c fffff680 e 24 e 34 e 1a e 24 e 39
FIXUPS: 7b7c 30 20 a 19 b 18 a 19 b 43 a 19 10 19 20 a 19 b 2f 60 fffff7e5
FIXUPS: 75da a 19 11 18 a 19 10 18 a 19 11 23 1b 2b 1b 38 aa 54 21 37 12
FIXUPS: 78ea 35 35 43 11 1c 11 46 1d b36 14 63 ffffea3b 30 16 f 1b 23 1e
FIXUPS: 70df 63 3b e 76 1b 1e 21 e 2b 33 62 a 13 d 1e 2b 36 38 c2 1f 68
FIXUPS: 8778 4c 14 1f 20c e f 27 c f ce f e f 24 f e f 1a9 9d 30 9c3 22
FIXUPS: 9816 8 15 3f 12 1f 51 ffffebe9 30 29ed 9 37 17 15 21 2e ffffe97e
FIXUPS: 9a59 175 17 19 5f e2 5b ac f2 2b 12 14 33 32 27 1c6 f 23 58 5b
FIXUPS: a9e3 ffffdc2a 78 14 2438 27 8 18 26 21 38 9 37 17 15 25 18 9 37
FIXUPS: ac97 15 21 61 8 37 29 21 18 29 21 38 9 37 17 15 25 1188 fffff5f3
FIXUPS: b81c 17 19 27 17 19 27 17 19 5c 1c 18 f fffff644 383 137 f 10 8
FIXUPS: b5ba 52 f 10 8 d fffff3cd 36 60 a 8 1302 23 16 33 13 16 13 16 13
FIXUPS: be9e 13 16 13 f 13 f 8 1c 13 16 13 16 13 16 13 16 13 f 13 f 9 35
FIXUPS: c08d 32 73 1a 16 15 79 fffff7d0 30 15 15 15 15 12 15 15 15 17 3d
FIXUPS: bafd 1a 13 14 58 2c 2c b4 32 26 42 29 29 121bf 23 54 1b 1b 23 f9
FIXUPS: 1e1c5 16 21 19 32 16 21 19 dc 1d 1d 1d 1d 1d 1d 1d 1d 1d 1d 1d
FIXUPS: 1e4ce 1d 1d 1d 24 fffff391 22 3a 22 22 22 20 28 25 25 25 25 25
FIXUPS: 1dacc 22 22 31 22 22 22 22 31 22 22 22 20 ff 16 16 1e 14e 1b fffff51d
FIXUPS: 1d481 22 22 22 22 22 22 22 22 22 22 22 22 22 22 22 22 22 20 28
FIXUPS: 1d733 25 25 25 25 2f 22 22 3a 22 22 fffff68b 41 22 22 3a 22 22
FIXUPS: 1d068 22 3a 22 22 22 20 a3 22 22 22 22 22 22 22 22 22 22 22 22
FIXUPS: 1d3a7 22 22 22 22 fffff641 22 22 22 22 22 22 20 28 28 28 28 28
FIXUPS: 1cc4c 41 22 22 3a 22 22 22 22 3a 22 22 22 20 28 28 28 28 28 fffff6db
FIXUPS: 1c616 41 22 22 22 22 22 22 22 22 22 22 22 22 22 22 22 22 22 20
FIXUPS: 1c8fa 22 22 22 22 22 22 22 22 22 22 fffff6a2 28 41 22 22 3a 22
FIXUPS: 1c21b 22 22 3a 22 22 22 20 28 28 28 28 28 28 41 22 22 3a 22 22
FIXUPS: 1c534 22 3a 22 22 fffff6a3 22 22 22 22 22 22 22 20 41 22 22 22
FIXUPS: 1be4e 22 22 22 22 22 22 22 22 22 22 22 22 22 20 28 28 28 28 fffff6e1
FIXUPS: 1b7cb 20 28 28 28 28 28 28 41 22 22 3a 22 22 22 22 3a 22 22 22
FIXUPS: 1bae2 41 22 22 22 22 22 22 22 22 22 fffff6a3 22 22 22 22 22 22
FIXUPS: 1b3e6 22 22 22 22 22 22 22 20 28 28 28 28 28 28 41 22 22 3a 22
FIXUPS: 1b6e7 22 22 3a 22 fffff6df 22 22 22 22 3a 22 22 22 20 41 22 22
FIXUPS: 1b055 22 22 22 22 22 22 22 22 22 22 22 22 22 22 20 41 22 22 fffff686
FIXUPS: 1a97e 22 20 28 28 28 28 28 28 41 22 22 3a 22 22 22 22 3a 22 22
FIXUPS: 1ac97 20 28 28 28 28 28 28 41 22 22 fffff6d3 22 22 22 22 22 22
FIXUPS: 1a5ed 22 22 22 22 22 22 22 22 20 41 22 22 22 22 22 22 22 22 22
FIXUPS: 1a8b2 22 22 22 22 fffff694 3a 22 22 22 22 3a 22 22 22 20 28 28
FIXUPS: 1a1c8 28 28 28 2d 22 22 3a 22 22 22 22 3a 22 22 22 20 88 22 fffff67b
FIXUPS: 19b7a 22 22 20 2d 22 22 22 22 22 22 22 22 22 22 22 22 22 22 22
FIXUPS: 19e2b 22 20 28 28 28 28 28 28 2d 22 fffff710 28 28 28 28 2d 22
FIXUPS: 197cd 3a 22 22 22 22 3a 22 22 22 20 2d 22 22 22 22 22 22 22 22
FIXUPS: 19aae 22 22 22 22 fffff6df 22 22 22 22 22 22 22 22 22 22 20 28
FIXUPS: 193d9 28 28 28 28 2d 22 22 3a 22 22 22 22 3a 22 22 22 20 28 fffff708
FIXUPS: 18dbe 22 23 28 14 59 22 22 22 22 22 22 22 22 22 22 22 22 22 22
FIXUPS: 19096 22 22 20 2d 22 22 22 22 22 22 fffff6b2 28 28 28 32 22 22
FIXUPS: 189cd 22 22 22 22 3a 22 22 22 23 28 28 28 28 28 28 32 22 22 3a
FIXUPS: 18cda 22 22 22 3a fffff6c7 22 22 22 22 22 22 22 22 22 23 32 22
FIXUPS: 1860c 22 22 22 22 22 22 22 22 22 22 22 22 22 22 22 23 28 28 fffff714
FIXUPS: 17f9d 7e 13 e 13 13 c 61 1d 1d 1d 1d 1d 1d 1d 1d 1d 1d 1d 1c 1d
FIXUPS: 18264 1d b0 22 22 22 22 22 22 22 fffff78b 13 c 34 c 13 c 2e 13
FIXUPS: 17c75 1f 25 25 27 38 c 13 c 22 39 c 13 c 1d 25 25 27 3c 52 53 e
FIXUPS: 17f7e fffff715 c 22 13 c 13 13 c 27 1e 24 13 c e4 13 c a1 13 c
FIXUPS: 1797b 16 2e 16 28 2c 13 c b8 43 13 c 3c fffff6da c e 13 c e 13
FIXUPS: 172de 21 18 11 126 e d 1d 13 c 71 13 c 22 13 c 13 13 c 27 1e 2a
FIXUPS: 1762a c 4a fffff85d c 13 13 c 13 13 c 13 13 c 52 d8 3d 13 c e 13
FIXUPS: 17132 13 13 c 13 13 c 30 13 c 13 13 c 4e fffff9b7 13 13 c 4e c
FIXUPS: 16cbb c 13 13 c 13 13 c 13 13 c 4e c 13 c 13 13 c 13 13 c 13 13
FIXUPS: 16e6c 52 c fffffacc c 13 13 c 13 13 c 13 13 c 50 13 c 13 13 c 13
FIXUPS: 16aff c 13 13 c 50 c 13 c 13 13 c 13 13 fffffac9 13 13 c 4e c 13
FIXUPS: 16784 13 13 c 13 13 c 13 13 c 4e c 13 c 13 13 c 13 13 c 13 13 c
FIXUPS: 16977 c fffff889 13 c 12a 16 21 19 32 16 21 19 122 13 c 13 13 c
FIXUPS: 165ad 13 c 13 13 c 4c c 13 c 13 13 c 13 13 fffff8b0 c 12 13 c 12
FIXUPS: 15fdf c 19 13 c 4b 13 c 12 13 c 12 13 c 19 13 c 4b 13 c 12 13 c
FIXUPS: 161d4 13 c fffffad3 12 13 c 19 13 c 43 13 c 12 13 c 12 13 c 19
FIXUPS: 15e1f c 43 13 c 12 13 c 12 13 c 19 13 c 43 fffffaa3 13 c 4b 13
FIXUPS: 15a96 12 13 c 12 13 c 19 13 c 4a 13 c 12 13 c 12 13 c 19 13 c 43
FIXUPS: 15c89 c 12 13 fffffa97 c 12 13 c 12 13 c 19 13 c 78 13 c 12 13
FIXUPS: 158bf 12 13 c 19 13 c 4b 13 c 12 13 c 12 13 c fffffa57 12 13 c
FIXUPS: 15495 13 c 5e 13 c 12 13 c 12 13 c 19 13 c 5e 13 c 12 13 c 12 13
FIXUPS: 156aa 19 13 c 5c fffff712 31 22 22 22 22 31 22 22 22 20 277 16
FIXUPS: 15263 1e 63 13 c 12 13 c 12 13 c 19 13 c 5e 13 c 12 13 fffff2f2
FIXUPS: 14753 22 22 20 15e 28 25 25 25 25 2f 22 22 3a 22 22 22 22 3a 22
FIXUPS: 14b84 22 20 15e 25 25 25 25 25 2f 22 fffff37f 22 22 22 22 22 22
FIXUPS: 1429b 22 22 22 22 22 22 22 22 22 20 168 22 22 22 22 22 22 22 22
FIXUPS: 14687 22 22 22 22 fffff00b 22 3a 22 22 22 22 3a 22 22 22 20 15e
FIXUPS: 13a44 28 28 28 28 41 22 22 3a 22 22 22 22 3a 22 22 22 20 4a0 ffffee85
FIXUPS: 13032 22 22 22 20 177 22 22 22 22 22 22 22 22 22 22 22 22 22 22
FIXUPS: 1342d 22 22 20 15e 28 28 28 28 28 41 fffff318 28 28 28 28 28 41
FIXUPS: 12b3b 22 3a 22 22 22 22 3a 22 22 22 20 177 22 22 22 22 22 22 22
FIXUPS: 12f66 22 22 22 22 fffff301 22 22 22 22 22 22 22 22 22 22 22 20
FIXUPS: 125e3 28 28 28 28 28 41 22 22 3a 22 22 22 22 3a 22 22 22 20 fffff33f
FIXUPS: 11c13 3a 22 22 22 20 177 22 22 22 22 22 22 22 22 22 22 22 22 22
FIXUPS: 12026 22 22 22 20 177 22 22 22 22 22 fffff1ac 15e 28 28 28 28 28
FIXUPS: 116e0 22 22 3a 22 22 22 22 3a 22 22 22 20 15e 28 28 28 28 28 41
FIXUPS: 11b2f 22 3a 22 22 fffff319 22 22 22 22 22 22 22 22 22 22 22 22
FIXUPS: 110a0 177 22 22 22 22 22 22 22 22 22 22 22 22 22 22 22 22 22 fffff33d
FIXUPS: 107b8 22 3a 22 22 22 20 15e 28 28 28 28 28 41 22 22 3a 22 22 22
FIXUPS: 10c07 3a 22 22 22 20 177 22 22 22 22 fffff1ae 20 177 22 22 22 22
FIXUPS: 102b5 22 22 22 22 22 22 22 22 22 22 22 22 20 15e 28 28 28 28 28
FIXUPS: 106d4 22 22 3a 22 fffff132 28 2d 22 22 3a 22 22 22 22 3a 22 22
FIXUPS: faa1 20 371 22 22 22 22 22 22 22 22 22 22 22 22 22 22 22 22 fffff12f
FIXUPS: f1a3 22 22 22 22 22 22 20 15e 28 28 28 28 28 2d 22 22 3a 22 22
FIXUPS: f5c6 22 3a 22 22 22 20 15e 28 28 28 fffff245 22 20 163 22 22 22
FIXUPS: ecf0 22 22 22 22 22 22 22 22 22 22 22 22 22 20 163 22 22 22 22
FIXUPS: f0d7 22 22 22 22 fffff34a 28 28 2d 22 22 3a 22 22 22 22 3a 22 22
FIXUPS: e6cc 20 15e 28 28 28 28 28 2d 22 22 3a 22 22 22 22 3a 22 fffff33d
FIXUPS: de00 22 22 22 22 22 22 22 20 163 22 22 22 22 22 22 22 22 22 22
FIXUPS: e1e7 22 22 22 22 22 22 20 15e 28 28 fffff51d c 12 13 c 4c 13 c
FIXUPS: da58 13 c 4e 13 c 12 13 c 4e 13 c 12 13 c f9 22 22 22 22 22 22
FIXUPS: dd9a 22 fffff61d 22 22 23 c3 28 28 28 28 28 32 22 22 3a 22 22 22
FIXUPS: d703 3a 22 22 22 23 c3 14 52 13 c 12 13 c 4c fffff50e 22 22 22
FIXUPS: cf21 22 22 22 22 22 22 22 22 22 22 22 23 c3 28 28 28 28 28 32 22
FIXUPS: d2bb 3a 22 22 22 22 3a fffff4ef 3f 23 f 3f 28 33 28 33 38 31 ae
FIXUPS: cb45 22 22 22 22 22 22 22 22 22 22 22 22 22 22 22 22 23 cd 22 fffff4ea
FIXUPS: c377 12 23 1d 3d 33 2b 33 2b 33 2b 33 2b 33 2b 33 2b 33 2b 33 2b
FIXUPS: c729 2b 33 25 12 3f 26 f 3f 26 12431 19 46 1b 19 c3 19 2b 19 45
FIXUPS: 1eed8 bd 18 9f 18 ab 18 a1 fffed050 38 15 15 15 15 15 15 15 15
FIXUPS: c30d 15 15 15 12271 11 75 11 f2 19 3a 19 3a 19 51 21 3c 21 58 1b
FIXUPS: 1e960 2f 19 34 19 77 1b 19 32 19 34 19 49 bd 3f 19 12ef e6 eb 19
FIXUPS: 201b1 19 5c 133 19 38 19 2c 19 38 19 28 19 144 eb 18 40 18 5c 2c6
FIXUPS: 1f1ed 32 68 1a 16 15 79 fffff22d 1321 70 9 39 9 55 19 2c 19 22
FIXUPS: 1fa44 19 74 19 2f 19 20 21 18 49 b5 a5 8d 18 4c 18 2c 18 38 18
FIXUPS: 1fef3 18 67ca 1f 3f 1c 27 1f cf 131 21 13 ffff89a4 6c 11 75 11
FIXUPS: 1f57e 19 52 19 2e 19 20 d 15 59 27 19 7a 19 6c 19 3e 66f0 22 22
FIXUPS: 25ff0 22 22 22 1d 90 42 22 22 22 3b 22 22 22 1d 90 32 22 22 22
FIXUPS: 263ca 22 22 22 1d 113 3d f5 1c fffff2a5 3b 22 22 22 42 22 22 22
FIXUPS: 25ab9 b1 42 22 22 22 3b 22 22 22 1d ab 42 22 22 22 34 22 22 22
FIXUPS: 25eda 3a 34 fffff3d6 1d b1 42 22 22 22 3b 22 22 22 1d 49 34 22
FIXUPS: 25613 22 42 22 22 22 1d 49 42 22 22 22 34 22 22 22 1d fffff4d1
FIXUPS: 24d95 22 1d 49 34 22 22 22 42 22 22 22 1d 49 42 22 22 22 34 22
FIXUPS: 250e5 22 1d b1 3b 22 22 22 42 22 22 fffff44b 34 22 22 22 1d 49
FIXUPS: 2487b 22 22 22 42 22 22 22 1d b1 42 22 22 22 3b 22 22 22 1d b1
FIXUPS: 24ca9 22 22 22 42 fffff3ce 22 22 42 22 22 22 1d b1 42 22 22 22
FIXUPS: 243bc 22 22 22 1d b1 3b 22 22 22 42 22 22 22 1d 49 42 22 22 fffff403
FIXUPS: 23b63 22 22 22 42 22 22 22 1d 9d 42 22 22 22 3b 22 22 22 1d 90
FIXUPS: 23f63 22 22 22 34 22 22 22 1d 49 34 fffff446 1d 9d 3b 22 22 22
FIXUPS: 236e0 22 22 22 1d 35 34 22 22 22 42 22 22 22 1d 35 42 22 22 22
FIXUPS: 23a08 22 22 22 1d fffff51d 22 22 20 5e 42 22 22 22 34 22 22 22
FIXUPS: 231c9 35 34 22 22 22 42 22 22 22 1d 9d 42 22 22 22 3b 22 22 fffff47f
FIXUPS: 229d4 22 22 22 20 3a 34 22 22 22 42 22 22 22 20 a2 42 22 22 22
FIXUPS: 22d7b 22 22 22 20 a2 3b 22 22 22 42 ffffe0ca 8c ff fd 7e 7e fd
FIXUPS: 215d0 d9 a0 113 111 92 a0 113 111 92 92 111 113 92 92 111 113 f4
FIXUPS: 224d8 104 102 21a 42 22 22 4b2b fd 890 ffffebb7 33 1e 78 14 16
FIXUPS: 26af8 83 ffff9f08 3c 15 15 15 15 15 15 15 15 15 23 18 14 15 12
FIXUPS: 20c53 b6 94 107 105 8ba2 13 c 3d 16 c 13 c 34 56 10 9 c 13 c 65
FIXUPS: 29d38 1d 23 10 ffffce1b 1db 82 62 11c 55 176 14f 11 27 55 2e 23c4
FIXUPS: 29732 3d 9 c 13 c 1b 63 13 c 6a 54 14 14 3f 4a 12 13 c 4f 14 c
FIXUPS: 29a62 c 3d 16 c 13 c 3d 16 fffff871 c 1b 3f 13 c 1b 3b c 13 c 1b
FIXUPS: 2950e c 13 c 1b 3d c 13 c 1b 3d c 13 c 1b 3d 4c 9 c 13 fffff8c1
FIXUPS: 29005 23 f 39 23 f 39 32 2e e 4a 13 c 1b 3b c 13 c 1b 3d c 13 c
FIXUPS: 292d1 3d c 13 c 1b 3d c fffff8cb c 13 c 34 59 10 9 c 13 c 65 1d
FIXUPS: 28e03 23 10 2a 30 f 16 12 15 15 15 15 15 15 15 15 16 12 26 fffff92b
FIXUPS: 288fc 49 14 1f 1a f 19 1f 1a f 19 47 12 13 c 4d 14 c 13 c 3b 16
FIXUPS: 28b7c 13 c 3b 16 c 13 c 3b fffff8bc c 13 c 1b 3d c 13 c 1b 3d c
FIXUPS: 28633 c 1b 3d 4c 9 c 13 c 1b 3d 9 c 13 c 1b 63 13 c 65 fffff901
FIXUPS: 281b2 1b 3b c 13 c 1b 3d c 13 c 1b 3d c 13 c 1b 3d c 13 c 1b 3f
FIXUPS: 28429 c 1b 3b c 13 c 1b 1d0e 19 ad 29 ffffdb92 30 f 16 12 15 15
FIXUPS: 27f06 15 15 15 15 15 16 12 26 f 39 23 f 39 23 f 39 32 2e e 4a 1c92
FIXUPS: 29e39 30 e 12 34 10 12 34 10 12 34 10 12 2c 53 12 9 12 78 14 12
FIXUPS: 2a0e7 19 2c 12 12 12 19 1b 12 25 71e 14 16 18 7d fffffb56 33 21
FIXUPS: 2a572 a3 14 79 14 16 18 25 18 25 15 95 fffffb05 2c 1d 1b 4a 74
FIXUPS: 2a42d 18 20 1b 5b fffff8d2 133b 19 6e 19 2c 19 20 21 18 46 b5 84
FIXUPS: 2b409 18 58 18 9e 18 3c 18 52 75 1ef fffff22c 2d 34 2a fffffec1
FIXUPS: 2aa5e fffffdbf 33 1e 11a9 10 8 d fffff0f1 6c 11 75 11 f2 19 3a
FIXUPS: 2ad8e 3a 19 2a d 41 1b 19 56 19 5c 51 9 37 9 55 19 2c 19 22 e7c1
FIXUPS: 39898 10 10 10 8 15 1b 1b 13 ffff1f3f 2c f 13 13 13 13 13 13 13
FIXUPS: 2b941 13 8 1c f 10 10 13 13 13 13 13 dc3d 1a 8 19 f 1a 8 14 19
FIXUPS: 396eb 8 19 f 8 1c 21 1c 10 10 10 8 1c 10 10 10 10 8 1c 10 10 10
FIXUPS: 3986c fffffadd 13 c 19 8 10 30 14 a6 35 f 17 8 19 f 17 8 19 f 17
FIXUPS: 39574 19 f 17 8 19 f 8 19 f 8 19 fffffad4 f 13 c 1c f 13 c 1c 8
FIXUPS: 391c0 9 f 13 c 1c f 13 c 1c f 13 c 1c f 13 c 1c f 13 c 1b fffffb16
FIXUPS: 38e63 c 5b 19 f 16 8 19 f 17 d 19 1c 10 36 9 f 13 c 1c f 13 c 1c
FIXUPS: 39083 13 c 1c f 13 c fffffaa4 c 19 14 13 c 25 13 c 3e 13 c 10 19
FIXUPS: 38cbe 19 14 13 c 25 13 c 2a 13 c 14 2c 13 c 10 19 c fffffab4 13
FIXUPS: 388fe 19 13 13 c 19 13 13 c 19 13 13 c 1b 8 35 f 8 19 f 15 13 c
FIXUPS: 38ac3 8 15 68 13 c 10 fffffaa9 17 13 c 43 13 c 12 13 c 17 13 c
FIXUPS: 38760 13 c 12 13 c 17 13 c 43 d 13 13 c 19 13 13 c 19 fffffaac
FIXUPS: 3838b c 12 13 c 17 13 c 42 13 c 12 13 c 17 13 c 42 13 c 12 13 c
FIXUPS: 3856f 13 c 42 13 c 12 13 fffff8e8 10 13 c 10 13 c e3 18 13 c 62
FIXUPS: 380e8 c 65 13 c 40 13 c 59 f 15 13 c 1e 8 62 17 1c f 8 fffff8e0
FIXUPS: 37c38 c 4a 13 c 10 13 c 10 13 c 4a 13 c 10 13 c 10 19 c 41 13 c
FIXUPS: 37e48 13 c 10 13 c 47 13 fffffa6f 25 13 c 2a 13 c 14 2c 13 c 10
FIXUPS: 37a74 c 25 13 c 3c 13 c 10 13 c 10 13 c 4a 13 c 10 13 c fffff9ff
FIXUPS: 37627 c 10 13 c 5e 13 c 83 3b 13 c 10 19 c 19 14 13 c 25 13 c 3e
FIXUPS: 378d2 c 10 19 c 19 14 13 fffff9b9 16 30 13 c 10 13 c 3f 13 c 10
FIXUPS: 37421 c 3f 13 c 10 13 c 3f 13 c 10 19 c 3a 13 c 10 13 c fffff8fb
FIXUPS: 36edf 39 25 30 25 30 25 30 25 30 73 37 13 c 10 13 c 40 13 c 10
FIXUPS: 371e6 c 40 13 c 10 19 c 6f f fffff6d6 1d 1d 1c 1d 1d 1d 22 29 2f
FIXUPS: 36b26 30 25 30 25 30 25 30 25 30 25 30 25 30 25 30 28 31 28 31
FIXUPS: 36e80 30 fffff59e 31 2e 31 2e 31 2e 31 2e 31 3f 30 25 30 25 30
FIXUPS: 36739 30 25 30 25 30 80 42 1d 1d 1d 1d 1d 1d 1d 1d fffff6f3 1b
FIXUPS: 360e2 1f 21 1c f f f 8 1c f f f f 8 1c f f f 8 1c f f f f 8 14
FIXUPS: 3631f 77 59 31 fffff8d0 10 19 c 14 14 13 c 2a 13 c 25 13 c 19 2c
FIXUPS: 35e51 c 10 19 c 2a 13 c d8 2d 13 c e 13 c 69 fffff87e e 13 c 29
FIXUPS: 3597c c 29 13 c 18 e5 19 f 17 8 5f 3b 13 c 10 19 c 19 14 13 c 2b
FIXUPS: 35c8c c 39 13 fffff99b 13 c e 13 c 29 13 c 17 26 13 c e 13 c 1b
FIXUPS: 357c7 13 c 28 13 c 28 13 c 24 13 c 17 26 13 fffff9ce ba 2b 13 c
FIXUPS: 353e9 13 c 5a f e f 8 19 f 16 8 33 f 8 19 f 8 19 14 8 2d 13 c e
FIXUPS: 355f8 c fffff917 13 c 3a 13 c 3a 13 c 3a 13 c 3a 13 c 3a 13 c 36
FIXUPS: 35140 c 36 13 c 36 13 c 3a 21 21 21 21 fffff929 c 3b 13 c 10 13
FIXUPS: 34c72 3b 13 c 10 13 c 3b 13 c 10 13 c 3b 13 c 30 13 c 30 13 c 30
FIXUPS: 34ebf c fffff924 31 25 30 20 f 39 25 30 25 30 25 30 25 30 2f 29
FIXUPS: 34a9c c 10 13 c 3b 13 c 10 13 c 3b 13 c 10 fffff760 1d 1d 1d 1d
FIXUPS: 343bb 1d 1c 1d 1d 1d 22 29 30 25 30 25 30 25 30 25 30 25 30 25
FIXUPS: 346c4 25 30 25 30 28 31 fffff827 c 3b 13 c 10 13 c 3b 13 c 10 13
FIXUPS: 3410c 3b 13 c 10 13 c 3b 13 c 10 13 c 57 24 1d 1d 1d 1d fffff93e
FIXUPS: 33c64 f 8 19 f 8 19 14 8 21 30 25 30 25 30 25 30 25 30 25 30 49
FIXUPS: 33f36 c 10 13 c 3b 13 c 10 fffff495 d 3e 27 71 1e 27 77 3d 2d 24
FIXUPS: 336ee 71 6d 4f 11 d 3e 6d 4f 11 d 3e 26 4b a2 146 19 f e f 16 fffff164
FIXUPS: 32db3 8b f 1a 8 19 f 1a 8 14 3e 3e 26 7a 27 71 1e 27 77 3b 2b 22
FIXUPS: 33216 71 6d 4f 11 d 3e 6d 53 fffff5ca 3c 13 c e 13 c 1b 10 13 c
FIXUPS: 32b24 13 c 28 13 c 19 2a 13 c e 13 c 28 13 c da 2d 13 c e fffff8de
FIXUPS: 32696 13 c 10 13 c 28 13 c 28 13 c 18 e5 19 f 17 8 64 2f 13 c 10
FIXUPS: 3298b c 1b 10 13 c 29 13 fffff96c 13 c 79 13 c 10 13 c 29 13 c
FIXUPS: 324ce 24 13 c 10 13 c 1b 10 13 c 28 13 c 28 13 c 24 13 c fffff9d5
FIXUPS: 32051 21 21 ba 2b 13 c 10 13 c 5a f e f 8 19 f 16 8 19 f 8 19 f
FIXUPS: 322fa 19 14 8 2b 13 c fffff8f1 13 c 50 13 c 3a 13 c 3a 13 c 3a
FIXUPS: 31df7 c 3a 13 c 3a 13 c 36 13 c 36 13 c 36 13 c 3a 21 fffff95d
FIXUPS: 31978 10 13 c 3b 13 c 10 13 c 3b 13 c 10 13 c 3b 13 c 10 13 c 3b
FIXUPS: 31b90 c 30 13 c 30 13 c fffff8f2 28 31 28 31 25 30 20 f 39 25 30
FIXUPS: 31715 30 25 30 25 30 2f 29 13 c 10 13 c 3b 13 c 10 13 c 3b fffff738
FIXUPS: 310ae 1d 1d 1d 1d 1d 1d 1d 1d 1c 1d 1d 1d 22 29 30 25 30 25 30
FIXUPS: 31353 30 25 30 25 30 25 30 25 30 25 fffff881 c 10 13 c 3b 13 c
FIXUPS: 30e22 13 c 3b 13 c 10 13 c 3b 13 c 10 13 c 3b 13 c 10 13 c 57 24
FIXUPS: 31074 fffff968 f 16 8 19 f 8 19 f 8 19 14 8 21 30 25 30 25 30 25
FIXUPS: 30bee 25 30 25 30 49 13 c 10 13 c 3b fffff3f3 6d 53 11 d 3e 27
FIXUPS: 30311 1e 27 77 3d 2d 24 51 71 6d 4f 11 d 3e 6d 4f 11 d 3e 26 4b
FIXUPS: 30860 146 19 f fffff00c 8 19 f 1c 8 2d 13 c e 13 c ad 163 21 23
FIXUPS: 2fd18 8f 27 71 1e 27 77 3b 2b 22 51 71 6d 4f 11 d fffff514 c 39
FIXUPS: 2f68b c 10 19 c 14 14 13 c 2a 13 c 25 13 c 19 2c 13 c 10 19 c 2a
FIXUPS: 2f876 c ea 41 f f fffff8b6 12 c c1 39 f 20 8 1e f e 12 c 19 8 11
FIXUPS: 2f477 f 17 8 76 3b 13 c 10 19 c 19 14 13 c 2a fffff830 13 c 10
FIXUPS: 2ee98 c 19 14 13 c 25 13 c 2a 13 c 14 2c 13 c 10 19 c 25 13 c 5b
FIXUPS: 2f172 ce 13 12 c fffff872 34 12 c 35 13 c 35 13 c 34 12 c 35 13
FIXUPS: 2ec83 35 13 c 57 13 c 10 19 c 19 14 13 c 25 13 c fffff970 13 c
FIXUPS: 2e7d6 13 c 34 12 c 35 13 c 35 13 c 34 12 c 35 13 c 35 13 c 34 12
FIXUPS: 2ea3b 35 13 c 35 13 fffff93e c 10 13 c 40 13 c 10 19 c 57 12 c
FIXUPS: 2e58e 13 c 35 13 c 34 12 c 35 13 c 35 13 c 34 12 c fffff931 f 13
FIXUPS: 2e0ac 15 11 13 c 15 8 14 13 c 30 13 c 30 13 c 30 13 c 4b 5a 62
FIXUPS: 2e374 13 c 10 13 c 40 fffff8dc 25 30 20 f 39 25 30 25 30 25 30
FIXUPS: 2debf 30 32 3c d f 13 c 15 11 13 c 15 11 13 c 17 f 19 c fffff78c
FIXUPS: 2d817 1e 1e 1e 1e 1e 1e 1e 1e 23 2a 30 25 30 25 30 25 30 25 30
FIXUPS: 2dafd 30 25 30 25 30 25 30 28 31 28 fffff880 8 19 f f 8 14 1a 50
FIXUPS: 2d610 f 8 1b 16 1d d 8 14 f e 8 14 f e 8 14 36 1e 1e 1e 1e 1d fffffb33
FIXUPS: 2d31d f 8 19 f e 8 19 f f 8 19 f f 8 19 f f 8 19 f 14 8 1e f f
FIXUPS: 2d4b7 14 2b 19 f fffffb47 f 8 19 f d 14 24 2a 29 2a 43 21 f e 8
FIXUPS: 2d208 f f 8 19 f f 8 19 f f 8 19 f 14 8 fffffb58 f f 8 19 f 8 19
FIXUPS: 2cec6 8 19 f 8 19 f 8 19 f 8 19 f 8 1c 21 1c f f f 8 1c f f fffffad1
FIXUPS: 2cb57 25 30 25 30 32 57 1f f 8 19 f 8 19 f 8 19 f 8 19 f 8 1c 21
FIXUPS: 2cdd9 f f f 8 1c f fffff797 41 30 25 30 25 30 25 30 25 30 25 30
FIXUPS: 2c80f 30 25 30 25 30 28 31 28 31 25 30 20 f 39 25 30 25 30 fffff77b
FIXUPS: 2c293 27 f 8 1b 16 2a f 8 1b 16 36 16 3d 16 27 d 8 1b 16 2a f 8
FIXUPS: 2c4dc 16 36 16 3d 16 2a d fffff949 8 1b 16 36 16 36 16 3d 16 27
FIXUPS: 2c06b 8 1b 16 27 f 8 1b 16 27 f 8 1b 16 2a f 8 1b 16 36 16 fffff98b
FIXUPS: 2bbda 8 1b 16 2c f 8 1b 16 25 16 27 d 8 1b 16 2a f 8 1b 16 3d 16
FIXUPS: 2be1e f 8 1b 16 5c 16 2a de66 3a 18 38 18 2a 4b 9 40 9 7a 33 92
FIXUPS: 3a111 fffff8d8 5f 35 ae 19 fffffe07 29 12 8 19 a 8 d ffff2099 7e
FIXUPS: 2bafa 1d 1d fb12 20 20 20 20 20 38f 23 23 1bb 57 43 8f4 d9a bf9
FIXUPS: 3dfa8 13 1469 ffffad09 33 1e 78 14 16 18 83 fffff8b2 6c 11 75 11
FIXUPS: 39d50 5d38 3e 3f 28 2e 28 31 3f 3f 68 15 bf 62 14 52 16 18 15 1d
FIXUPS: 3feab 1d 15 c2 18 15 52 1a ffffa2ab f59 46 f3 43 4127 1c 19 35
FIXUPS: 3f58b a 33 33 28 31 37 44 53 14 88 16 16 15 13 67 3f 23 3d 14 16
FIXUPS: 3f957 15 21 14 1a 15 79 302b 3e e 9 12 4f 16 45 16 57 16 16 1e
FIXUPS: 42d05 12 a1 5e 22 8 15 18 8e 1b 3c 89 1b 2c 3b ffffc3f3 30 20 1d
FIXUPS: 42357 1f 1e 65 1a 16 21 25 21 ed 2f ad 19 4e 21 1d 21 1b 7a 21
FIXUPS: 427f4 21 54 12 47 12 a7 18 12 4b 12 60 fffff0d8 21 1b e7 12 47
FIXUPS: 41cce 62 19 5e 84 b 41 16 18 1e 6e 16 3a 18 9b 12 52 d1 1e 1b 64
FIXUPS: 4221c 12 23 21 c7 fffff0a3 61 16 16 21 21 ab 1e 53 16 1a 21 c6
FIXUPS: 416fc 1f 43 16 1a 21 23 21 a1 39 b 24 16 66 1a 21 3c 1e 1b fffff4ae
FIXUPS: 40ee8 15 8 12 10 39 1c 16 17 17 8 1c 17 17 17 8 14 15 c1 1e 1b
FIXUPS: 4119b 4f 18 21 21 90 19 4f 5b 2f fffff8ce 15 15 17 b 12 17 d 12
FIXUPS: 40d3f d 12 17 d 12 15 8 1c 9 12 15 15 17 b 12 17 d 12 17 d 12 17
FIXUPS: 4078a 65 7c 14 2e 14 5f 56 27 8 16 87 19 12 26 14 4f 5e 2a f e
FIXUPS: 40ba3 19 f e 8 14 17 1f 10 3e 9 2ade 5d 27 2c 15 15 11 32 15 1e7
FIXUPS: 43e7b ffffc1e2 54 a4 48 14 52 2a 14 ab 2f fa 16 21 70 4a 14d 1b
FIXUPS: 4068b 33 8c 19 384a 32 6a 18 18 12 7c fffffd96 2d 1b 57 18 2f fffff100
FIXUPS: 4315c ef ff 5 7 13 5 7 f 49 1d 14 5d 1d 14 209 f 11
